ARM GAS  /tmp/cckyA7fG.s 			page 1


   1              		.syntax unified
   2              		.cpu cortex-m4
   3              		.eabi_attribute 27, 1
   4              		.eabi_attribute 28, 1
   5              		.fpu fpv4-sp-d16
   6              		.eabi_attribute 20, 1
   7              		.eabi_attribute 21, 1
   8              		.eabi_attribute 23, 3
   9              		.eabi_attribute 24, 1
  10              		.eabi_attribute 25, 1
  11              		.eabi_attribute 26, 1
  12              		.eabi_attribute 30, 1
  13              		.eabi_attribute 34, 1
  14              		.eabi_attribute 18, 4
  15              		.thumb
  16              		.syntax unified
  17              		.file	"B3M.c"
  18              		.text
  19              	.Ltext0:
  20              		.cfi_sections	.debug_frame
  21              		.section	.text.B3M_Load,"ax",%progbits
  22              		.align	2
  23              		.global	B3M_Load
  24              		.thumb
  25              		.thumb_func
  27              	B3M_Load:
  28              	.LFB124:
  29              		.file 1 "Src/B3M.c"
   1:Src/B3M.c     **** #include "B3M.h"
   2:Src/B3M.c     **** #include "stm32f4xx_hal.h"
   3:Src/B3M.c     **** 
   4:Src/B3M.c     **** typedef struct B3M_ReadStruct {
   5:Src/B3M.c     **** 	uint8_t size;
   6:Src/B3M.c     **** 	uint8_t command;
   7:Src/B3M.c     **** 	uint8_t option;
   8:Src/B3M.c     **** 	uint8_t ID;
   9:Src/B3M.c     **** 	uint8_t sum;
  10:Src/B3M.c     **** } B3M_ReadStruct;
  11:Src/B3M.c     **** 
  12:Src/B3M.c     **** //uint8_t B3M_Load(UART_HandleTypeDef huart, uint8_t SERVO_ID)
  13:Src/B3M.c     **** //{
  14:Src/B3M.c     **** //	B3M_ReadStruct readStruct;
  15:Src/B3M.c     **** //
  16:Src/B3M.c     **** //	readStruct.size = SIZE_5b;
  17:Src/B3M.c     **** //	readStruct.command = COMMAND_LOAD;
  18:Src/B3M.c     **** //	readStruct.option = OPTION_DEFAULT;
  19:Src/B3M.c     **** //	readStruct.ID = SERVO_ID;
  20:Src/B3M.c     **** //	readStruct.sum = readStruct.size + readStruct.command + readStruct.option + readStruct.ID;
  21:Src/B3M.c     **** //
  22:Src/B3M.c     **** //	HAL_UART_Transmit(&huart, (uint8_t*)&readStruct, readStruct.size, HAL_MAX_DELAY);
  23:Src/B3M.c     **** ////	HAL_UART_Transmit(&huart, (uint8_t*)TxData, 5, HAL_MAX_DELAY);
  24:Src/B3M.c     **** //	HAL_Delay(1);
  25:Src/B3M.c     **** //    return 0;
  26:Src/B3M.c     **** //}
  27:Src/B3M.c     **** 
  28:Src/B3M.c     **** 
  29:Src/B3M.c     **** /* Single Mode Send Format */
ARM GAS  /tmp/cckyA7fG.s 			page 2


  30:Src/B3M.c     **** uint8_t B3M_Load(UART_HandleTypeDef huart, uint8_t SERVO_ID)
  31:Src/B3M.c     **** {
  30              		.loc 1 31 0
  31              		.cfi_startproc
  32              		@ args = 68, pretend = 16, frame = 8
  33              		@ frame_needed = 0, uses_anonymous_args = 0
  34              	.LVL0:
  35 0000 84B0     		sub	sp, sp, #16
  36              	.LCFI0:
  37              		.cfi_def_cfa_offset 16
  38 0002 00B5     		push	{lr}
  39              	.LCFI1:
  40              		.cfi_def_cfa_offset 20
  41              		.cfi_offset 14, -20
  42 0004 83B0     		sub	sp, sp, #12
  43              	.LCFI2:
  44              		.cfi_def_cfa_offset 32
  45 0006 0DF1100E 		add	lr, sp, #16
  46 000a 8EE80F00 		stmia	lr, {r0, r1, r2, r3}
  47              	.LVL1:
  32:Src/B3M.c     **** 	uint8_t TxData[5];
  33:Src/B3M.c     **** 	uint8_t CheckSum = 0;
  34:Src/B3M.c     **** 
  35:Src/B3M.c     **** 	TxData[0] = SIZE_5b;   								// SIZE
  48              		.loc 1 35 0
  49 000e 0523     		movs	r3, #5
  50 0010 8DF80030 		strb	r3, [sp]
  36:Src/B3M.c     **** 	TxData[1] = COMMAND_LOAD;   						// COMMAND
  51              		.loc 1 36 0
  52 0014 0123     		movs	r3, #1
  53 0016 8DF80130 		strb	r3, [sp, #1]
  37:Src/B3M.c     **** 	TxData[2] = OPTION_DEFAULT;   						// OPTION
  54              		.loc 1 37 0
  55 001a 0022     		movs	r2, #0
  56 001c 8DF80220 		strb	r2, [sp, #2]
  38:Src/B3M.c     **** 	TxData[3] = SERVO_ID;   							// ID
  57              		.loc 1 38 0
  58 0020 9DF85030 		ldrb	r3, [sp, #80]	@ zero_extendqisi2
  59 0024 8DF80330 		strb	r3, [sp, #3]
  60              	.LVL2:
  61              	.LBB2:
  39:Src/B3M.c     **** 
  40:Src/B3M.c     ****     /* CheckSum Calculation */
  41:Src/B3M.c     ****     for(uint8_t i=0; i<=4; i++){
  62              		.loc 1 41 0
  63 0028 1346     		mov	r3, r2
  64 002a 07E0     		b	.L2
  65              	.LVL3:
  66              	.L3:
  42:Src/B3M.c     ****         CheckSum = CheckSum + TxData[i];                // XOR from ID to Data
  67              		.loc 1 42 0 discriminator 3
  68 002c 02A9     		add	r1, sp, #8
  69 002e 1944     		add	r1, r1, r3
  70 0030 11F8081C 		ldrb	r1, [r1, #-8]	@ zero_extendqisi2
  71 0034 0A44     		add	r2, r2, r1
  72              	.LVL4:
  73 0036 D2B2     		uxtb	r2, r2
ARM GAS  /tmp/cckyA7fG.s 			page 3


  74              	.LVL5:
  41:Src/B3M.c     ****         CheckSum = CheckSum + TxData[i];                // XOR from ID to Data
  75              		.loc 1 41 0 discriminator 3
  76 0038 0133     		adds	r3, r3, #1
  77              	.LVL6:
  78 003a DBB2     		uxtb	r3, r3
  79              	.LVL7:
  80              	.L2:
  41:Src/B3M.c     ****         CheckSum = CheckSum + TxData[i];                // XOR from ID to Data
  81              		.loc 1 41 0 is_stmt 0 discriminator 1
  82 003c 042B     		cmp	r3, #4
  83 003e F5D9     		bls	.L3
  84              	.LBE2:
  43:Src/B3M.c     ****     }
  44:Src/B3M.c     ****     CheckSum = (uint8_t)0x00FF & CheckSum;              // CHECKSUM
  45:Src/B3M.c     **** 
  46:Src/B3M.c     ****     TxData[4] = CheckSum;
  85              		.loc 1 46 0 is_stmt 1
  86 0040 8DF80420 		strb	r2, [sp, #4]
  47:Src/B3M.c     **** 
  48:Src/B3M.c     **** 	HAL_UART_Transmit(&huart, (uint8_t*)TxData, 5, HAL_MAX_DELAY);
  87              		.loc 1 48 0
  88 0044 4FF0FF33 		mov	r3, #-1
  89              	.LVL8:
  90 0048 0522     		movs	r2, #5
  91              	.LVL9:
  92 004a 6946     		mov	r1, sp
  93 004c 04A8     		add	r0, sp, #16
  94 004e FFF7FEFF 		bl	HAL_UART_Transmit
  95              	.LVL10:
  49:Src/B3M.c     **** 	HAL_Delay(1);
  96              		.loc 1 49 0
  97 0052 0120     		movs	r0, #1
  98 0054 FFF7FEFF 		bl	HAL_Delay
  99              	.LVL11:
  50:Src/B3M.c     ****     return 0;
  51:Src/B3M.c     **** }
 100              		.loc 1 51 0
 101 0058 0020     		movs	r0, #0
 102 005a 03B0     		add	sp, sp, #12
 103              	.LCFI3:
 104              		.cfi_def_cfa_offset 20
 105              		@ sp needed
 106 005c 5DF804EB 		ldr	lr, [sp], #4
 107              	.LCFI4:
 108              		.cfi_restore 14
 109              		.cfi_def_cfa_offset 16
 110 0060 04B0     		add	sp, sp, #16
 111              	.LCFI5:
 112              		.cfi_def_cfa_offset 0
 113 0062 7047     		bx	lr
 114              		.cfi_endproc
 115              	.LFE124:
 117              		.section	.text.B3M_Save,"ax",%progbits
 118              		.align	2
 119              		.global	B3M_Save
 120              		.thumb
ARM GAS  /tmp/cckyA7fG.s 			page 4


 121              		.thumb_func
 123              	B3M_Save:
 124              	.LFB125:
  52:Src/B3M.c     **** 
  53:Src/B3M.c     **** /* Save Command */
  54:Src/B3M.c     **** uint8_t B3M_Save(UART_HandleTypeDef huart, uint8_t SERVO_ID)
  55:Src/B3M.c     **** {
 125              		.loc 1 55 0
 126              		.cfi_startproc
 127              		@ args = 68, pretend = 16, frame = 8
 128              		@ frame_needed = 0, uses_anonymous_args = 0
 129              	.LVL12:
 130 0000 84B0     		sub	sp, sp, #16
 131              	.LCFI6:
 132              		.cfi_def_cfa_offset 16
 133 0002 00B5     		push	{lr}
 134              	.LCFI7:
 135              		.cfi_def_cfa_offset 20
 136              		.cfi_offset 14, -20
 137 0004 83B0     		sub	sp, sp, #12
 138              	.LCFI8:
 139              		.cfi_def_cfa_offset 32
 140 0006 0DF1100E 		add	lr, sp, #16
 141 000a 8EE80F00 		stmia	lr, {r0, r1, r2, r3}
 142              	.LVL13:
  56:Src/B3M.c     **** 	uint8_t TxData[5];
  57:Src/B3M.c     **** 	uint8_t CheckSum = 0;
  58:Src/B3M.c     **** 
  59:Src/B3M.c     **** 	TxData[0] = SIZE_5b;   								// SIZE
 143              		.loc 1 59 0
 144 000e 0523     		movs	r3, #5
 145 0010 8DF80030 		strb	r3, [sp]
  60:Src/B3M.c     **** 	TxData[1] = COMMAND_SAVE;   						// COMMAND
 146              		.loc 1 60 0
 147 0014 0223     		movs	r3, #2
 148 0016 8DF80130 		strb	r3, [sp, #1]
  61:Src/B3M.c     **** 	TxData[2] = OPTION_DEFAULT;   						// OPTION
 149              		.loc 1 61 0
 150 001a 0022     		movs	r2, #0
 151 001c 8DF80220 		strb	r2, [sp, #2]
  62:Src/B3M.c     **** 	TxData[3] = SERVO_ID;   							// ID
 152              		.loc 1 62 0
 153 0020 9DF85030 		ldrb	r3, [sp, #80]	@ zero_extendqisi2
 154 0024 8DF80330 		strb	r3, [sp, #3]
 155              	.LVL14:
 156              	.LBB3:
  63:Src/B3M.c     **** 
  64:Src/B3M.c     ****     /* CheckSum Calculation */
  65:Src/B3M.c     ****     for(uint8_t i=0; i<=4; i++){
 157              		.loc 1 65 0
 158 0028 1346     		mov	r3, r2
 159 002a 07E0     		b	.L6
 160              	.LVL15:
 161              	.L7:
  66:Src/B3M.c     ****         CheckSum = CheckSum + TxData[i];                // XOR from ID to Data
 162              		.loc 1 66 0 discriminator 3
 163 002c 02A9     		add	r1, sp, #8
ARM GAS  /tmp/cckyA7fG.s 			page 5


 164 002e 1944     		add	r1, r1, r3
 165 0030 11F8081C 		ldrb	r1, [r1, #-8]	@ zero_extendqisi2
 166 0034 0A44     		add	r2, r2, r1
 167              	.LVL16:
 168 0036 D2B2     		uxtb	r2, r2
 169              	.LVL17:
  65:Src/B3M.c     ****         CheckSum = CheckSum + TxData[i];                // XOR from ID to Data
 170              		.loc 1 65 0 discriminator 3
 171 0038 0133     		adds	r3, r3, #1
 172              	.LVL18:
 173 003a DBB2     		uxtb	r3, r3
 174              	.LVL19:
 175              	.L6:
  65:Src/B3M.c     ****         CheckSum = CheckSum + TxData[i];                // XOR from ID to Data
 176              		.loc 1 65 0 is_stmt 0 discriminator 1
 177 003c 042B     		cmp	r3, #4
 178 003e F5D9     		bls	.L7
 179              	.LBE3:
  67:Src/B3M.c     ****     }
  68:Src/B3M.c     ****     CheckSum = (uint8_t)0x00FF & CheckSum;              // CHECKSUM
  69:Src/B3M.c     **** 
  70:Src/B3M.c     ****     TxData[4] = CheckSum;
 180              		.loc 1 70 0 is_stmt 1
 181 0040 8DF80420 		strb	r2, [sp, #4]
  71:Src/B3M.c     **** 
  72:Src/B3M.c     **** 	HAL_UART_Transmit(&huart, (uint8_t*)TxData, 5, HAL_MAX_DELAY);
 182              		.loc 1 72 0
 183 0044 4FF0FF33 		mov	r3, #-1
 184              	.LVL20:
 185 0048 0522     		movs	r2, #5
 186              	.LVL21:
 187 004a 6946     		mov	r1, sp
 188 004c 04A8     		add	r0, sp, #16
 189 004e FFF7FEFF 		bl	HAL_UART_Transmit
 190              	.LVL22:
  73:Src/B3M.c     **** 	HAL_Delay(1);
 191              		.loc 1 73 0
 192 0052 0120     		movs	r0, #1
 193 0054 FFF7FEFF 		bl	HAL_Delay
 194              	.LVL23:
  74:Src/B3M.c     ****     return 0;
  75:Src/B3M.c     **** }
 195              		.loc 1 75 0
 196 0058 0020     		movs	r0, #0
 197 005a 03B0     		add	sp, sp, #12
 198              	.LCFI9:
 199              		.cfi_def_cfa_offset 20
 200              		@ sp needed
 201 005c 5DF804EB 		ldr	lr, [sp], #4
 202              	.LCFI10:
 203              		.cfi_restore 14
 204              		.cfi_def_cfa_offset 16
 205 0060 04B0     		add	sp, sp, #16
 206              	.LCFI11:
 207              		.cfi_def_cfa_offset 0
 208 0062 7047     		bx	lr
 209              		.cfi_endproc
ARM GAS  /tmp/cckyA7fG.s 			page 6


 210              	.LFE125:
 212              		.section	.text.B3M_Read,"ax",%progbits
 213              		.align	2
 214              		.global	B3M_Read
 215              		.thumb
 216              		.thumb_func
 218              	B3M_Read:
 219              	.LFB126:
  76:Src/B3M.c     **** 
  77:Src/B3M.c     **** /* Read Command */
  78:Src/B3M.c     **** uint8_t B3M_Read(UART_HandleTypeDef huart, uint8_t SERVO_ID, uint8_t READ_ADR, uint8_t READ_LENGTH)
  79:Src/B3M.c     **** {
 220              		.loc 1 79 0
 221              		.cfi_startproc
 222              		@ args = 76, pretend = 16, frame = 8
 223              		@ frame_needed = 0, uses_anonymous_args = 0
 224              	.LVL24:
 225 0000 84B0     		sub	sp, sp, #16
 226              	.LCFI12:
 227              		.cfi_def_cfa_offset 16
 228 0002 00B5     		push	{lr}
 229              	.LCFI13:
 230              		.cfi_def_cfa_offset 20
 231              		.cfi_offset 14, -20
 232 0004 83B0     		sub	sp, sp, #12
 233              	.LCFI14:
 234              		.cfi_def_cfa_offset 32
 235 0006 0DF1100E 		add	lr, sp, #16
 236 000a 8EE80F00 		stmia	lr, {r0, r1, r2, r3}
 237              	.LVL25:
  80:Src/B3M.c     **** 	uint8_t TxData[7];
  81:Src/B3M.c     **** 	uint8_t CheckSum = 0;
  82:Src/B3M.c     **** 
  83:Src/B3M.c     **** 	TxData[0] = SIZE_7b;   								// SIZE
 238              		.loc 1 83 0
 239 000e 0723     		movs	r3, #7
 240 0010 8DF80030 		strb	r3, [sp]
  84:Src/B3M.c     **** 	TxData[1] = COMMAND_READ;   						// COMMAND
 241              		.loc 1 84 0
 242 0014 0323     		movs	r3, #3
 243 0016 8DF80130 		strb	r3, [sp, #1]
  85:Src/B3M.c     **** 	TxData[2] = OPTION_DEFAULT;   						// OPTION
 244              		.loc 1 85 0
 245 001a 0022     		movs	r2, #0
 246 001c 8DF80220 		strb	r2, [sp, #2]
  86:Src/B3M.c     **** 	TxData[3] = SERVO_ID;   							// ID
 247              		.loc 1 86 0
 248 0020 9DF85030 		ldrb	r3, [sp, #80]	@ zero_extendqisi2
 249 0024 8DF80330 		strb	r3, [sp, #3]
  87:Src/B3M.c     **** 	TxData[4] = READ_ADR;   							// DATA
 250              		.loc 1 87 0
 251 0028 9DF85430 		ldrb	r3, [sp, #84]	@ zero_extendqisi2
 252 002c 8DF80430 		strb	r3, [sp, #4]
  88:Src/B3M.c     **** 	TxData[5] = READ_LENGTH;   							// LENGTH
 253              		.loc 1 88 0
 254 0030 9DF85830 		ldrb	r3, [sp, #88]	@ zero_extendqisi2
 255 0034 8DF80530 		strb	r3, [sp, #5]
ARM GAS  /tmp/cckyA7fG.s 			page 7


 256              	.LVL26:
 257              	.LBB4:
  89:Src/B3M.c     **** 
  90:Src/B3M.c     ****     /* CheckSum Calculation */
  91:Src/B3M.c     ****     for(uint8_t i=0; i<=5; i++){
 258              		.loc 1 91 0
 259 0038 1346     		mov	r3, r2
 260 003a 07E0     		b	.L10
 261              	.LVL27:
 262              	.L11:
  92:Src/B3M.c     ****         CheckSum = CheckSum + TxData[i];                // XOR from ID to Data
 263              		.loc 1 92 0 discriminator 3
 264 003c 02A9     		add	r1, sp, #8
 265 003e 1944     		add	r1, r1, r3
 266 0040 11F8081C 		ldrb	r1, [r1, #-8]	@ zero_extendqisi2
 267 0044 0A44     		add	r2, r2, r1
 268              	.LVL28:
 269 0046 D2B2     		uxtb	r2, r2
 270              	.LVL29:
  91:Src/B3M.c     ****         CheckSum = CheckSum + TxData[i];                // XOR from ID to Data
 271              		.loc 1 91 0 discriminator 3
 272 0048 0133     		adds	r3, r3, #1
 273              	.LVL30:
 274 004a DBB2     		uxtb	r3, r3
 275              	.LVL31:
 276              	.L10:
  91:Src/B3M.c     ****         CheckSum = CheckSum + TxData[i];                // XOR from ID to Data
 277              		.loc 1 91 0 is_stmt 0 discriminator 1
 278 004c 052B     		cmp	r3, #5
 279 004e F5D9     		bls	.L11
 280              	.LBE4:
  93:Src/B3M.c     ****     }
  94:Src/B3M.c     ****     CheckSum = (uint8_t)0x00FF & CheckSum;              // CHECKSUM
  95:Src/B3M.c     **** 
  96:Src/B3M.c     ****     TxData[6] = CheckSum;
 281              		.loc 1 96 0 is_stmt 1
 282 0050 8DF80620 		strb	r2, [sp, #6]
  97:Src/B3M.c     **** 
  98:Src/B3M.c     **** 	HAL_UART_Transmit(&huart, (uint8_t*)TxData, 7, HAL_MAX_DELAY);
 283              		.loc 1 98 0
 284 0054 4FF0FF33 		mov	r3, #-1
 285              	.LVL32:
 286 0058 0722     		movs	r2, #7
 287              	.LVL33:
 288 005a 6946     		mov	r1, sp
 289 005c 04A8     		add	r0, sp, #16
 290 005e FFF7FEFF 		bl	HAL_UART_Transmit
 291              	.LVL34:
  99:Src/B3M.c     **** 	HAL_Delay(1);
 292              		.loc 1 99 0
 293 0062 0120     		movs	r0, #1
 294 0064 FFF7FEFF 		bl	HAL_Delay
 295              	.LVL35:
 100:Src/B3M.c     **** 	return 0;
 101:Src/B3M.c     **** }
 296              		.loc 1 101 0
 297 0068 0020     		movs	r0, #0
ARM GAS  /tmp/cckyA7fG.s 			page 8


 298 006a 03B0     		add	sp, sp, #12
 299              	.LCFI15:
 300              		.cfi_def_cfa_offset 20
 301              		@ sp needed
 302 006c 5DF804EB 		ldr	lr, [sp], #4
 303              	.LCFI16:
 304              		.cfi_restore 14
 305              		.cfi_def_cfa_offset 16
 306 0070 04B0     		add	sp, sp, #16
 307              	.LCFI17:
 308              		.cfi_def_cfa_offset 0
 309 0072 7047     		bx	lr
 310              		.cfi_endproc
 311              	.LFE126:
 313              		.section	.text.B3M_Write_1B,"ax",%progbits
 314              		.align	2
 315              		.global	B3M_Write_1B
 316              		.thumb
 317              		.thumb_func
 319              	B3M_Write_1B:
 320              	.LFB127:
 102:Src/B3M.c     **** 
 103:Src/B3M.c     **** /* Write Command */
 104:Src/B3M.c     **** uint8_t B3M_Write_1B(UART_HandleTypeDef huart, uint8_t SERVO_ID, uint16_t DATA, uint8_t ADR)
 105:Src/B3M.c     **** {
 321              		.loc 1 105 0
 322              		.cfi_startproc
 323              		@ args = 76, pretend = 16, frame = 8
 324              		@ frame_needed = 0, uses_anonymous_args = 0
 325              	.LVL36:
 326 0000 84B0     		sub	sp, sp, #16
 327              	.LCFI18:
 328              		.cfi_def_cfa_offset 16
 329 0002 00B5     		push	{lr}
 330              	.LCFI19:
 331              		.cfi_def_cfa_offset 20
 332              		.cfi_offset 14, -20
 333 0004 83B0     		sub	sp, sp, #12
 334              	.LCFI20:
 335              		.cfi_def_cfa_offset 32
 336 0006 0DF1100E 		add	lr, sp, #16
 337 000a 8EE80F00 		stmia	lr, {r0, r1, r2, r3}
 338              	.LVL37:
 106:Src/B3M.c     **** 	uint8_t TxData[8];
 107:Src/B3M.c     **** 	uint8_t CheckSum = 0;
 108:Src/B3M.c     **** 
 109:Src/B3M.c     **** 	TxData[0] = SIZE_8b;   								// SIZE
 339              		.loc 1 109 0
 340 000e 0823     		movs	r3, #8
 341 0010 8DF80030 		strb	r3, [sp]
 110:Src/B3M.c     **** 	TxData[1] = COMMAND_WRITE;   						// COMMAND
 342              		.loc 1 110 0
 343 0014 0423     		movs	r3, #4
 344 0016 8DF80130 		strb	r3, [sp, #1]
 111:Src/B3M.c     **** 	TxData[2] = OPTION_DEFAULT;   						// OPTION
 345              		.loc 1 111 0
 346 001a 0022     		movs	r2, #0
ARM GAS  /tmp/cckyA7fG.s 			page 9


 347 001c 8DF80220 		strb	r2, [sp, #2]
 112:Src/B3M.c     **** 	TxData[3] = SERVO_ID;   							// ID
 348              		.loc 1 112 0
 349 0020 9DF85030 		ldrb	r3, [sp, #80]	@ zero_extendqisi2
 350 0024 8DF80330 		strb	r3, [sp, #3]
 113:Src/B3M.c     **** 	TxData[4] = DATA;   								// DATA
 351              		.loc 1 113 0
 352 0028 BDF85430 		ldrh	r3, [sp, #84]
 353 002c 8DF80430 		strb	r3, [sp, #4]
 114:Src/B3M.c     **** 	TxData[5] = ADR;   									// ADR
 354              		.loc 1 114 0
 355 0030 9DF85830 		ldrb	r3, [sp, #88]	@ zero_extendqisi2
 356 0034 8DF80530 		strb	r3, [sp, #5]
 115:Src/B3M.c     **** 	TxData[6] = COUNT;									// CNT
 357              		.loc 1 115 0
 358 0038 0123     		movs	r3, #1
 359 003a 8DF80630 		strb	r3, [sp, #6]
 360              	.LVL38:
 361              	.LBB5:
 116:Src/B3M.c     **** 
 117:Src/B3M.c     ****     /* CheckSum Calculation */
 118:Src/B3M.c     ****     for(uint8_t i=0; i<=6; i++){
 362              		.loc 1 118 0
 363 003e 1346     		mov	r3, r2
 364 0040 07E0     		b	.L14
 365              	.LVL39:
 366              	.L15:
 119:Src/B3M.c     ****         CheckSum = CheckSum + TxData[i];                // XOR from ID to Data
 367              		.loc 1 119 0 discriminator 3
 368 0042 02A9     		add	r1, sp, #8
 369 0044 1944     		add	r1, r1, r3
 370 0046 11F8081C 		ldrb	r1, [r1, #-8]	@ zero_extendqisi2
 371 004a 0A44     		add	r2, r2, r1
 372              	.LVL40:
 373 004c D2B2     		uxtb	r2, r2
 374              	.LVL41:
 118:Src/B3M.c     ****         CheckSum = CheckSum + TxData[i];                // XOR from ID to Data
 375              		.loc 1 118 0 discriminator 3
 376 004e 0133     		adds	r3, r3, #1
 377              	.LVL42:
 378 0050 DBB2     		uxtb	r3, r3
 379              	.LVL43:
 380              	.L14:
 118:Src/B3M.c     ****         CheckSum = CheckSum + TxData[i];                // XOR from ID to Data
 381              		.loc 1 118 0 is_stmt 0 discriminator 1
 382 0052 062B     		cmp	r3, #6
 383 0054 F5D9     		bls	.L15
 384              	.LBE5:
 120:Src/B3M.c     ****     }
 121:Src/B3M.c     ****     CheckSum = (uint8_t)0x00FF & CheckSum;              // CHECKSUM
 122:Src/B3M.c     **** 
 123:Src/B3M.c     ****     TxData[7] = CheckSum;
 385              		.loc 1 123 0 is_stmt 1
 386 0056 8DF80720 		strb	r2, [sp, #7]
 124:Src/B3M.c     **** 
 125:Src/B3M.c     **** 	HAL_UART_Transmit(&huart, (uint8_t*)TxData, 8, HAL_MAX_DELAY);
 387              		.loc 1 125 0
ARM GAS  /tmp/cckyA7fG.s 			page 10


 388 005a 4FF0FF33 		mov	r3, #-1
 389              	.LVL44:
 390 005e 0822     		movs	r2, #8
 391              	.LVL45:
 392 0060 6946     		mov	r1, sp
 393 0062 04A8     		add	r0, sp, #16
 394 0064 FFF7FEFF 		bl	HAL_UART_Transmit
 395              	.LVL46:
 126:Src/B3M.c     **** 	HAL_Delay(1);
 396              		.loc 1 126 0
 397 0068 0120     		movs	r0, #1
 398 006a FFF7FEFF 		bl	HAL_Delay
 399              	.LVL47:
 127:Src/B3M.c     **** 	return 0;
 128:Src/B3M.c     **** }
 400              		.loc 1 128 0
 401 006e 0020     		movs	r0, #0
 402 0070 03B0     		add	sp, sp, #12
 403              	.LCFI21:
 404              		.cfi_def_cfa_offset 20
 405              		@ sp needed
 406 0072 5DF804EB 		ldr	lr, [sp], #4
 407              	.LCFI22:
 408              		.cfi_restore 14
 409              		.cfi_def_cfa_offset 16
 410 0076 04B0     		add	sp, sp, #16
 411              	.LCFI23:
 412              		.cfi_def_cfa_offset 0
 413 0078 7047     		bx	lr
 414              		.cfi_endproc
 415              	.LFE127:
 417 007a 00BF     		.section	.text.B3M_Write_2B,"ax",%progbits
 418              		.align	2
 419              		.global	B3M_Write_2B
 420              		.thumb
 421              		.thumb_func
 423              	B3M_Write_2B:
 424              	.LFB128:
 129:Src/B3M.c     **** 
 130:Src/B3M.c     **** uint8_t B3M_Write_2B(UART_HandleTypeDef huart, uint8_t SERVO_ID, uint16_t DATA, uint8_t ADR)
 131:Src/B3M.c     **** {
 425              		.loc 1 131 0
 426              		.cfi_startproc
 427              		@ args = 76, pretend = 16, frame = 16
 428              		@ frame_needed = 0, uses_anonymous_args = 0
 429              	.LVL48:
 430 0000 84B0     		sub	sp, sp, #16
 431              	.LCFI24:
 432              		.cfi_def_cfa_offset 16
 433 0002 00B5     		push	{lr}
 434              	.LCFI25:
 435              		.cfi_def_cfa_offset 20
 436              		.cfi_offset 14, -20
 437 0004 85B0     		sub	sp, sp, #20
 438              	.LCFI26:
 439              		.cfi_def_cfa_offset 40
 440 0006 0DF1180E 		add	lr, sp, #24
ARM GAS  /tmp/cckyA7fG.s 			page 11


 441 000a 8EE80F00 		stmia	lr, {r0, r1, r2, r3}
 442 000e BDF85C30 		ldrh	r3, [sp, #92]
 443              	.LVL49:
 132:Src/B3M.c     **** 	uint8_t TxData[9];
 133:Src/B3M.c     **** 	uint8_t CheckSum = 0;
 134:Src/B3M.c     **** 
 135:Src/B3M.c     **** 	TxData[0] = SIZE_9b;   								// SIZE
 444              		.loc 1 135 0
 445 0012 0922     		movs	r2, #9
 446 0014 8DF80420 		strb	r2, [sp, #4]
 136:Src/B3M.c     **** 	TxData[1] = COMMAND_WRITE;   						// COMMAND
 447              		.loc 1 136 0
 448 0018 0422     		movs	r2, #4
 449 001a 8DF80520 		strb	r2, [sp, #5]
 137:Src/B3M.c     **** 	TxData[2] = OPTION_DEFAULT;   						// OPTION
 450              		.loc 1 137 0
 451 001e 0022     		movs	r2, #0
 452 0020 8DF80620 		strb	r2, [sp, #6]
 138:Src/B3M.c     **** 	TxData[3] = SERVO_ID;   							// ID
 453              		.loc 1 138 0
 454 0024 9DF85810 		ldrb	r1, [sp, #88]	@ zero_extendqisi2
 455 0028 8DF80710 		strb	r1, [sp, #7]
 139:Src/B3M.c     ****     TxData[4] = (uint8_t)0x00FF & DATA;             	// DATA_LSB
 456              		.loc 1 139 0
 457 002c 8DF80830 		strb	r3, [sp, #8]
 140:Src/B3M.c     ****     TxData[5] = (uint8_t)0x00FF & (DATA >> 8);    		// DATA_MSB
 458              		.loc 1 140 0
 459 0030 1B0A     		lsrs	r3, r3, #8
 460 0032 8DF80930 		strb	r3, [sp, #9]
 141:Src/B3M.c     **** 	TxData[6] = ADR;   									// ADR
 461              		.loc 1 141 0
 462 0036 9DF86030 		ldrb	r3, [sp, #96]	@ zero_extendqisi2
 463 003a 8DF80A30 		strb	r3, [sp, #10]
 142:Src/B3M.c     **** 	TxData[7] = COUNT;									// CNT
 464              		.loc 1 142 0
 465 003e 0123     		movs	r3, #1
 466 0040 8DF80B30 		strb	r3, [sp, #11]
 467              	.LVL50:
 468              	.LBB6:
 143:Src/B3M.c     **** 
 144:Src/B3M.c     ****     /* CheckSum Calculation */
 145:Src/B3M.c     ****     for(uint8_t i=0; i<=7; i++){
 469              		.loc 1 145 0
 470 0044 1346     		mov	r3, r2
 471 0046 07E0     		b	.L18
 472              	.LVL51:
 473              	.L19:
 146:Src/B3M.c     ****         CheckSum = CheckSum + TxData[i];                // XOR from ID to Data
 474              		.loc 1 146 0 discriminator 3
 475 0048 04A9     		add	r1, sp, #16
 476 004a 1944     		add	r1, r1, r3
 477 004c 11F80C1C 		ldrb	r1, [r1, #-12]	@ zero_extendqisi2
 478 0050 0A44     		add	r2, r2, r1
 479              	.LVL52:
 480 0052 D2B2     		uxtb	r2, r2
 481              	.LVL53:
 145:Src/B3M.c     ****         CheckSum = CheckSum + TxData[i];                // XOR from ID to Data
ARM GAS  /tmp/cckyA7fG.s 			page 12


 482              		.loc 1 145 0 discriminator 3
 483 0054 0133     		adds	r3, r3, #1
 484              	.LVL54:
 485 0056 DBB2     		uxtb	r3, r3
 486              	.LVL55:
 487              	.L18:
 145:Src/B3M.c     ****         CheckSum = CheckSum + TxData[i];                // XOR from ID to Data
 488              		.loc 1 145 0 is_stmt 0 discriminator 1
 489 0058 072B     		cmp	r3, #7
 490 005a F5D9     		bls	.L19
 491              	.LBE6:
 147:Src/B3M.c     ****     }
 148:Src/B3M.c     ****     CheckSum = (uint8_t)0x00FF & CheckSum;              // CHECKSUM
 149:Src/B3M.c     **** 
 150:Src/B3M.c     ****     TxData[8] = CheckSum;
 492              		.loc 1 150 0 is_stmt 1
 493 005c 8DF80C20 		strb	r2, [sp, #12]
 151:Src/B3M.c     **** 
 152:Src/B3M.c     **** 	HAL_UART_Transmit(&huart, (uint8_t*)TxData, 9, HAL_MAX_DELAY);
 494              		.loc 1 152 0
 495 0060 4FF0FF33 		mov	r3, #-1
 496              	.LVL56:
 497 0064 0922     		movs	r2, #9
 498              	.LVL57:
 499 0066 01A9     		add	r1, sp, #4
 500 0068 06A8     		add	r0, sp, #24
 501 006a FFF7FEFF 		bl	HAL_UART_Transmit
 502              	.LVL58:
 153:Src/B3M.c     **** 	HAL_Delay(1);
 503              		.loc 1 153 0
 504 006e 0120     		movs	r0, #1
 505 0070 FFF7FEFF 		bl	HAL_Delay
 506              	.LVL59:
 154:Src/B3M.c     **** 	return 0;
 155:Src/B3M.c     **** }
 507              		.loc 1 155 0
 508 0074 0020     		movs	r0, #0
 509 0076 05B0     		add	sp, sp, #20
 510              	.LCFI27:
 511              		.cfi_def_cfa_offset 20
 512              		@ sp needed
 513 0078 5DF804EB 		ldr	lr, [sp], #4
 514              	.LCFI28:
 515              		.cfi_restore 14
 516              		.cfi_def_cfa_offset 16
 517 007c 04B0     		add	sp, sp, #16
 518              	.LCFI29:
 519              		.cfi_def_cfa_offset 0
 520 007e 7047     		bx	lr
 521              		.cfi_endproc
 522              	.LFE128:
 524              		.section	.text.B3M_Write_4B,"ax",%progbits
 525              		.align	2
 526              		.global	B3M_Write_4B
 527              		.thumb
 528              		.thumb_func
 530              	B3M_Write_4B:
ARM GAS  /tmp/cckyA7fG.s 			page 13


 531              	.LFB129:
 156:Src/B3M.c     **** 
 157:Src/B3M.c     **** uint8_t B3M_Write_4B(UART_HandleTypeDef huart, uint8_t SERVO_ID, uint16_t DATA, uint8_t ADDR)
 158:Src/B3M.c     **** {
 532              		.loc 1 158 0
 533              		.cfi_startproc
 534              		@ args = 76, pretend = 16, frame = 16
 535              		@ frame_needed = 0, uses_anonymous_args = 0
 536              	.LVL60:
 537 0000 84B0     		sub	sp, sp, #16
 538              	.LCFI30:
 539              		.cfi_def_cfa_offset 16
 540 0002 00B5     		push	{lr}
 541              	.LCFI31:
 542              		.cfi_def_cfa_offset 20
 543              		.cfi_offset 14, -20
 544 0004 85B0     		sub	sp, sp, #20
 545              	.LCFI32:
 546              		.cfi_def_cfa_offset 40
 547 0006 0DF1180E 		add	lr, sp, #24
 548 000a 8EE80F00 		stmia	lr, {r0, r1, r2, r3}
 549 000e BDF85C30 		ldrh	r3, [sp, #92]
 550              	.LVL61:
 159:Src/B3M.c     **** 	uint8_t TxData[11];
 160:Src/B3M.c     **** 	uint8_t CheckSum = 0;
 161:Src/B3M.c     **** 
 162:Src/B3M.c     **** 	TxData[0] = SIZE_11b;   							// SIZE
 551              		.loc 1 162 0
 552 0012 0B22     		movs	r2, #11
 553 0014 8DF80420 		strb	r2, [sp, #4]
 163:Src/B3M.c     **** 	TxData[1] = COMMAND_WRITE;   						// COMMAND
 554              		.loc 1 163 0
 555 0018 0422     		movs	r2, #4
 556 001a 8DF80520 		strb	r2, [sp, #5]
 164:Src/B3M.c     **** 	TxData[2] = OPTION_DEFAULT;   						// OPTION
 557              		.loc 1 164 0
 558 001e 0022     		movs	r2, #0
 559 0020 8DF80620 		strb	r2, [sp, #6]
 165:Src/B3M.c     **** 	TxData[3] = SERVO_ID;   							// ID
 560              		.loc 1 165 0
 561 0024 9DF85810 		ldrb	r1, [sp, #88]	@ zero_extendqisi2
 562 0028 8DF80710 		strb	r1, [sp, #7]
 166:Src/B3M.c     ****     TxData[4] = (uint8_t)0x000000FF & DATA;             // DATA_LSB
 563              		.loc 1 166 0
 564 002c 8DF80830 		strb	r3, [sp, #8]
 167:Src/B3M.c     ****     TxData[5] = (uint8_t)0x000000FF & (DATA >> 8);    	// DATA_MIDLE2
 565              		.loc 1 167 0
 566 0030 190A     		lsrs	r1, r3, #8
 567 0032 8DF80910 		strb	r1, [sp, #9]
 168:Src/B3M.c     ****     TxData[6] = (uint8_t)0x000000FF & (DATA >> 12);		// DATA_MIDLE1
 568              		.loc 1 168 0
 569 0036 1B0B     		lsrs	r3, r3, #12
 570 0038 8DF80A30 		strb	r3, [sp, #10]
 169:Src/B3M.c     ****     TxData[7] = (uint8_t)0x000000FF & (DATA >> 16);		// DATA_MSB
 571              		.loc 1 169 0
 572 003c 8DF80B20 		strb	r2, [sp, #11]
 170:Src/B3M.c     **** 	TxData[8] = ADDR;   									// ADR
ARM GAS  /tmp/cckyA7fG.s 			page 14


 573              		.loc 1 170 0
 574 0040 9DF86030 		ldrb	r3, [sp, #96]	@ zero_extendqisi2
 575 0044 8DF80C30 		strb	r3, [sp, #12]
 171:Src/B3M.c     **** 	TxData[9] = COUNT;									// CNT
 576              		.loc 1 171 0
 577 0048 0123     		movs	r3, #1
 578 004a 8DF80D30 		strb	r3, [sp, #13]
 579              	.LVL62:
 580              	.LBB7:
 172:Src/B3M.c     **** 
 173:Src/B3M.c     ****     /* CheckSum Calculation */
 174:Src/B3M.c     ****     for(uint8_t i=0; i<=9; i++){
 581              		.loc 1 174 0
 582 004e 1346     		mov	r3, r2
 583 0050 07E0     		b	.L22
 584              	.LVL63:
 585              	.L23:
 175:Src/B3M.c     ****         CheckSum = CheckSum + TxData[i];                // XOR from ID to Data
 586              		.loc 1 175 0 discriminator 3
 587 0052 04A9     		add	r1, sp, #16
 588 0054 1944     		add	r1, r1, r3
 589 0056 11F80C1C 		ldrb	r1, [r1, #-12]	@ zero_extendqisi2
 590 005a 0A44     		add	r2, r2, r1
 591              	.LVL64:
 592 005c D2B2     		uxtb	r2, r2
 593              	.LVL65:
 174:Src/B3M.c     ****         CheckSum = CheckSum + TxData[i];                // XOR from ID to Data
 594              		.loc 1 174 0 discriminator 3
 595 005e 0133     		adds	r3, r3, #1
 596              	.LVL66:
 597 0060 DBB2     		uxtb	r3, r3
 598              	.LVL67:
 599              	.L22:
 174:Src/B3M.c     ****         CheckSum = CheckSum + TxData[i];                // XOR from ID to Data
 600              		.loc 1 174 0 is_stmt 0 discriminator 1
 601 0062 092B     		cmp	r3, #9
 602 0064 F5D9     		bls	.L23
 603              	.LBE7:
 176:Src/B3M.c     ****     }
 177:Src/B3M.c     ****     CheckSum = (uint8_t)0x00FF & CheckSum;              // CHECKSUM
 178:Src/B3M.c     **** 
 179:Src/B3M.c     ****     TxData[10] = CheckSum;
 604              		.loc 1 179 0 is_stmt 1
 605 0066 8DF80E20 		strb	r2, [sp, #14]
 180:Src/B3M.c     **** 
 181:Src/B3M.c     **** 	HAL_UART_Transmit(&huart, (uint8_t*)TxData, 11, HAL_MAX_DELAY);
 606              		.loc 1 181 0
 607 006a 4FF0FF33 		mov	r3, #-1
 608              	.LVL68:
 609 006e 0B22     		movs	r2, #11
 610              	.LVL69:
 611 0070 01A9     		add	r1, sp, #4
 612 0072 06A8     		add	r0, sp, #24
 613 0074 FFF7FEFF 		bl	HAL_UART_Transmit
 614              	.LVL70:
 182:Src/B3M.c     **** 	HAL_Delay(1);
 615              		.loc 1 182 0
ARM GAS  /tmp/cckyA7fG.s 			page 15


 616 0078 0120     		movs	r0, #1
 617 007a FFF7FEFF 		bl	HAL_Delay
 618              	.LVL71:
 183:Src/B3M.c     **** 	return 0;
 184:Src/B3M.c     **** }
 619              		.loc 1 184 0
 620 007e 0020     		movs	r0, #0
 621 0080 05B0     		add	sp, sp, #20
 622              	.LCFI33:
 623              		.cfi_def_cfa_offset 20
 624              		@ sp needed
 625 0082 5DF804EB 		ldr	lr, [sp], #4
 626              	.LCFI34:
 627              		.cfi_restore 14
 628              		.cfi_def_cfa_offset 16
 629 0086 04B0     		add	sp, sp, #16
 630              	.LCFI35:
 631              		.cfi_def_cfa_offset 0
 632 0088 7047     		bx	lr
 633              		.cfi_endproc
 634              	.LFE129:
 636 008a 00BF     		.section	.text.B3M_Reset,"ax",%progbits
 637              		.align	2
 638              		.global	B3M_Reset
 639              		.thumb
 640              		.thumb_func
 642              	B3M_Reset:
 643              	.LFB130:
 185:Src/B3M.c     **** 
 186:Src/B3M.c     **** /* Reset Command */
 187:Src/B3M.c     **** void B3M_Reset(UART_HandleTypeDef huart, uint8_t SERVO_ID, uint8_t TIME)
 188:Src/B3M.c     **** {
 644              		.loc 1 188 0
 645              		.cfi_startproc
 646              		@ args = 72, pretend = 16, frame = 8
 647              		@ frame_needed = 0, uses_anonymous_args = 0
 648              	.LVL72:
 649 0000 84B0     		sub	sp, sp, #16
 650              	.LCFI36:
 651              		.cfi_def_cfa_offset 16
 652 0002 00B5     		push	{lr}
 653              	.LCFI37:
 654              		.cfi_def_cfa_offset 20
 655              		.cfi_offset 14, -20
 656 0004 83B0     		sub	sp, sp, #12
 657              	.LCFI38:
 658              		.cfi_def_cfa_offset 32
 659 0006 0DF1100E 		add	lr, sp, #16
 660 000a 8EE80F00 		stmia	lr, {r0, r1, r2, r3}
 661              	.LVL73:
 189:Src/B3M.c     **** 	uint8_t TxData[6];
 190:Src/B3M.c     **** 	uint8_t CheckSum = 0;
 191:Src/B3M.c     **** 
 192:Src/B3M.c     **** 	TxData[0] = SIZE_6b;   								// SIZE
 662              		.loc 1 192 0
 663 000e 0623     		movs	r3, #6
 664 0010 8DF80030 		strb	r3, [sp]
ARM GAS  /tmp/cckyA7fG.s 			page 16


 193:Src/B3M.c     **** 	TxData[1] = COMMAND_RESET;   						// COMMAND
 665              		.loc 1 193 0
 666 0014 0523     		movs	r3, #5
 667 0016 8DF80130 		strb	r3, [sp, #1]
 194:Src/B3M.c     **** 	TxData[2] = OPTION_DEFAULT;   						// OPTION
 668              		.loc 1 194 0
 669 001a 0022     		movs	r2, #0
 670 001c 8DF80220 		strb	r2, [sp, #2]
 195:Src/B3M.c     **** 	TxData[3] = SERVO_ID;   							// ID
 671              		.loc 1 195 0
 672 0020 9DF85030 		ldrb	r3, [sp, #80]	@ zero_extendqisi2
 673 0024 8DF80330 		strb	r3, [sp, #3]
 196:Src/B3M.c     **** 	TxData[4] = TIME;   								// TIME
 674              		.loc 1 196 0
 675 0028 9DF85430 		ldrb	r3, [sp, #84]	@ zero_extendqisi2
 676 002c 8DF80430 		strb	r3, [sp, #4]
 677              	.LVL74:
 678              	.LBB8:
 197:Src/B3M.c     **** 
 198:Src/B3M.c     ****     /* CheckSum Calculation */
 199:Src/B3M.c     ****     for(uint8_t i=0; i<=4; i++){
 679              		.loc 1 199 0
 680 0030 1346     		mov	r3, r2
 681 0032 07E0     		b	.L26
 682              	.LVL75:
 683              	.L27:
 200:Src/B3M.c     ****         CheckSum = CheckSum + TxData[i];                // XOR from ID to Data
 684              		.loc 1 200 0 discriminator 3
 685 0034 02A9     		add	r1, sp, #8
 686 0036 1944     		add	r1, r1, r3
 687 0038 11F8081C 		ldrb	r1, [r1, #-8]	@ zero_extendqisi2
 688 003c 0A44     		add	r2, r2, r1
 689              	.LVL76:
 690 003e D2B2     		uxtb	r2, r2
 691              	.LVL77:
 199:Src/B3M.c     ****         CheckSum = CheckSum + TxData[i];                // XOR from ID to Data
 692              		.loc 1 199 0 discriminator 3
 693 0040 0133     		adds	r3, r3, #1
 694              	.LVL78:
 695 0042 DBB2     		uxtb	r3, r3
 696              	.LVL79:
 697              	.L26:
 199:Src/B3M.c     ****         CheckSum = CheckSum + TxData[i];                // XOR from ID to Data
 698              		.loc 1 199 0 is_stmt 0 discriminator 1
 699 0044 042B     		cmp	r3, #4
 700 0046 F5D9     		bls	.L27
 701              	.LBE8:
 201:Src/B3M.c     ****     }
 202:Src/B3M.c     ****     CheckSum = (uint8_t)0x00FF & CheckSum;              // CHECKSUM
 203:Src/B3M.c     **** 
 204:Src/B3M.c     ****     TxData[5] = CheckSum;
 702              		.loc 1 204 0 is_stmt 1
 703 0048 8DF80520 		strb	r2, [sp, #5]
 205:Src/B3M.c     **** 
 206:Src/B3M.c     **** 	HAL_UART_Transmit(&huart, (uint8_t*)TxData, 6, HAL_MAX_DELAY);
 704              		.loc 1 206 0
 705 004c 4FF0FF33 		mov	r3, #-1
ARM GAS  /tmp/cckyA7fG.s 			page 17


 706              	.LVL80:
 707 0050 0622     		movs	r2, #6
 708              	.LVL81:
 709 0052 6946     		mov	r1, sp
 710 0054 04A8     		add	r0, sp, #16
 711 0056 FFF7FEFF 		bl	HAL_UART_Transmit
 712              	.LVL82:
 207:Src/B3M.c     **** 	HAL_Delay(1);
 713              		.loc 1 207 0
 714 005a 0120     		movs	r0, #1
 715 005c FFF7FEFF 		bl	HAL_Delay
 716              	.LVL83:
 208:Src/B3M.c     **** }
 717              		.loc 1 208 0
 718 0060 03B0     		add	sp, sp, #12
 719              	.LCFI39:
 720              		.cfi_def_cfa_offset 20
 721              		@ sp needed
 722 0062 5DF804EB 		ldr	lr, [sp], #4
 723              	.LCFI40:
 724              		.cfi_restore 14
 725              		.cfi_def_cfa_offset 16
 726 0066 04B0     		add	sp, sp, #16
 727              	.LCFI41:
 728              		.cfi_def_cfa_offset 0
 729 0068 7047     		bx	lr
 730              		.cfi_endproc
 731              	.LFE130:
 733 006a 00BF     		.section	.text.B3M_SetDesirePostion,"ax",%progbits
 734              		.align	2
 735              		.global	B3M_SetDesirePostion
 736              		.thumb
 737              		.thumb_func
 739              	B3M_SetDesirePostion:
 740              	.LFB131:
 209:Src/B3M.c     **** 
 210:Src/B3M.c     **** /* Set Position */
 211:Src/B3M.c     **** uint8_t B3M_SetDesirePostion(UART_HandleTypeDef huart, uint8_t SERVO_ID, int16_t POSITION)
 212:Src/B3M.c     **** {
 741              		.loc 1 212 0
 742              		.cfi_startproc
 743              		@ args = 72, pretend = 16, frame = 16
 744              		@ frame_needed = 0, uses_anonymous_args = 0
 745              	.LVL84:
 746 0000 84B0     		sub	sp, sp, #16
 747              	.LCFI42:
 748              		.cfi_def_cfa_offset 16
 749 0002 00B5     		push	{lr}
 750              	.LCFI43:
 751              		.cfi_def_cfa_offset 20
 752              		.cfi_offset 14, -20
 753 0004 85B0     		sub	sp, sp, #20
 754              	.LCFI44:
 755              		.cfi_def_cfa_offset 40
 756 0006 0DF1180E 		add	lr, sp, #24
 757 000a 8EE80F00 		stmia	lr, {r0, r1, r2, r3}
 758 000e BDF95C30 		ldrsh	r3, [sp, #92]
ARM GAS  /tmp/cckyA7fG.s 			page 18


 759              	.LVL85:
 213:Src/B3M.c     ****     /* Local Variable */
 214:Src/B3M.c     ****     uint8_t TxData[9];
 215:Src/B3M.c     ****     uint8_t CheckSum = 0;
 216:Src/B3M.c     **** 
 217:Src/B3M.c     ****     if(POSITION<0)
 218:Src/B3M.c     ****         POSITION = 65535+POSITION+1;
 219:Src/B3M.c     **** 
 220:Src/B3M.c     ****     TxData[0] = SIZE_9b;                                // SIZE
 760              		.loc 1 220 0
 761 0012 0922     		movs	r2, #9
 762 0014 8DF80420 		strb	r2, [sp, #4]
 221:Src/B3M.c     ****     TxData[1] = COMMAND_WRITE;                          // CMD
 763              		.loc 1 221 0
 764 0018 0422     		movs	r2, #4
 765 001a 8DF80520 		strb	r2, [sp, #5]
 222:Src/B3M.c     ****     TxData[2] = OPTION_DEFAULT;                         // OPTION
 766              		.loc 1 222 0
 767 001e 0022     		movs	r2, #0
 768 0020 8DF80620 		strb	r2, [sp, #6]
 223:Src/B3M.c     ****     TxData[3] = SERVO_ID;                               // ID
 769              		.loc 1 223 0
 770 0024 9DF85810 		ldrb	r1, [sp, #88]	@ zero_extendqisi2
 771 0028 8DF80710 		strb	r1, [sp, #7]
 224:Src/B3M.c     ****     TxData[4] = (uint8_t)0x00FF & POSITION;             // POSITION_LSB
 772              		.loc 1 224 0
 773 002c 8DF80830 		strb	r3, [sp, #8]
 225:Src/B3M.c     ****     TxData[5] = (uint8_t)0x00FF & (POSITION >> 8);      // POSITION_MSB
 774              		.loc 1 225 0
 775 0030 C3F30723 		ubfx	r3, r3, #8, #8
 776              	.LVL86:
 777 0034 8DF80930 		strb	r3, [sp, #9]
 226:Src/B3M.c     ****     TxData[6] =SERVO_DESIRED_POSITION;        			// ADR
 778              		.loc 1 226 0
 779 0038 2A23     		movs	r3, #42
 780 003a 8DF80A30 		strb	r3, [sp, #10]
 227:Src/B3M.c     ****     TxData[7] = COUNT;                                  // COUNT
 781              		.loc 1 227 0
 782 003e 0123     		movs	r3, #1
 783 0040 8DF80B30 		strb	r3, [sp, #11]
 784              	.LVL87:
 785              	.LBB9:
 228:Src/B3M.c     **** 
 229:Src/B3M.c     ****     /* CheckSum Calculation */
 230:Src/B3M.c     ****     for(uint8_t i=0; i<=7; i++){
 786              		.loc 1 230 0
 787 0044 1346     		mov	r3, r2
 788 0046 07E0     		b	.L30
 789              	.LVL88:
 790              	.L31:
 231:Src/B3M.c     ****         CheckSum = CheckSum + TxData[i];                // XOR from ID to Data
 791              		.loc 1 231 0 discriminator 3
 792 0048 04A9     		add	r1, sp, #16
 793 004a 1944     		add	r1, r1, r3
 794 004c 11F80C1C 		ldrb	r1, [r1, #-12]	@ zero_extendqisi2
 795 0050 0A44     		add	r2, r2, r1
 796              	.LVL89:
ARM GAS  /tmp/cckyA7fG.s 			page 19


 797 0052 D2B2     		uxtb	r2, r2
 798              	.LVL90:
 230:Src/B3M.c     ****         CheckSum = CheckSum + TxData[i];                // XOR from ID to Data
 799              		.loc 1 230 0 discriminator 3
 800 0054 0133     		adds	r3, r3, #1
 801              	.LVL91:
 802 0056 DBB2     		uxtb	r3, r3
 803              	.LVL92:
 804              	.L30:
 230:Src/B3M.c     ****         CheckSum = CheckSum + TxData[i];                // XOR from ID to Data
 805              		.loc 1 230 0 is_stmt 0 discriminator 1
 806 0058 072B     		cmp	r3, #7
 807 005a F5D9     		bls	.L31
 808              	.LBE9:
 232:Src/B3M.c     ****     }
 233:Src/B3M.c     ****     CheckSum = (uint8_t)0x00FF & CheckSum;              // CHECKSUM
 234:Src/B3M.c     **** 
 235:Src/B3M.c     ****     TxData[8] = CheckSum;
 809              		.loc 1 235 0 is_stmt 1
 810 005c 8DF80C20 		strb	r2, [sp, #12]
 236:Src/B3M.c     **** 
 237:Src/B3M.c     ****     HAL_UART_Transmit(&huart, (uint8_t*)TxData, 9, HAL_MAX_DELAY);
 811              		.loc 1 237 0
 812 0060 4FF0FF33 		mov	r3, #-1
 813              	.LVL93:
 814 0064 0922     		movs	r2, #9
 815              	.LVL94:
 816 0066 01A9     		add	r1, sp, #4
 817 0068 06A8     		add	r0, sp, #24
 818 006a FFF7FEFF 		bl	HAL_UART_Transmit
 819              	.LVL95:
 238:Src/B3M.c     ****     //HAL_Delay(0.01);
 239:Src/B3M.c     ****     return 0;
 240:Src/B3M.c     **** }
 820              		.loc 1 240 0
 821 006e 0020     		movs	r0, #0
 822 0070 05B0     		add	sp, sp, #20
 823              	.LCFI45:
 824              		.cfi_def_cfa_offset 20
 825              		@ sp needed
 826 0072 5DF804EB 		ldr	lr, [sp], #4
 827              	.LCFI46:
 828              		.cfi_restore 14
 829              		.cfi_def_cfa_offset 16
 830 0076 04B0     		add	sp, sp, #16
 831              	.LCFI47:
 832              		.cfi_def_cfa_offset 0
 833 0078 7047     		bx	lr
 834              		.cfi_endproc
 835              	.LFE131:
 837 007a 00BF     		.section	.text.B3M_SetPosition,"ax",%progbits
 838              		.align	2
 839              		.global	B3M_SetPosition
 840              		.thumb
 841              		.thumb_func
 843              	B3M_SetPosition:
 844              	.LFB132:
ARM GAS  /tmp/cckyA7fG.s 			page 20


 241:Src/B3M.c     **** 
 242:Src/B3M.c     **** uint8_t B3M_SetPosition(UART_HandleTypeDef huart, uint8_t SERVO_ID, int16_t POSITION, uint16_t TIME
 243:Src/B3M.c     **** {
 845              		.loc 1 243 0
 846              		.cfi_startproc
 847              		@ args = 76, pretend = 16, frame = 16
 848              		@ frame_needed = 0, uses_anonymous_args = 0
 849              	.LVL96:
 850 0000 84B0     		sub	sp, sp, #16
 851              	.LCFI48:
 852              		.cfi_def_cfa_offset 16
 853 0002 00B5     		push	{lr}
 854              	.LCFI49:
 855              		.cfi_def_cfa_offset 20
 856              		.cfi_offset 14, -20
 857 0004 85B0     		sub	sp, sp, #20
 858              	.LCFI50:
 859              		.cfi_def_cfa_offset 40
 860 0006 0DF1180E 		add	lr, sp, #24
 861 000a 8EE80F00 		stmia	lr, {r0, r1, r2, r3}
 862 000e BDF95C10 		ldrsh	r1, [sp, #92]
 863 0012 BDF86030 		ldrh	r3, [sp, #96]
 864              	.LVL97:
 244:Src/B3M.c     ****     /* Local Variable */
 245:Src/B3M.c     ****     uint8_t TxData[9];
 246:Src/B3M.c     ****     uint8_t CheckSum = 0;
 247:Src/B3M.c     **** 
 248:Src/B3M.c     ****     if(POSITION<0)
 249:Src/B3M.c     ****         POSITION = 65535+POSITION+1;
 250:Src/B3M.c     **** 
 251:Src/B3M.c     ****     TxData[0] = SIZE_9b;                                // SIZE
 865              		.loc 1 251 0
 866 0016 0922     		movs	r2, #9
 867 0018 8DF80420 		strb	r2, [sp, #4]
 252:Src/B3M.c     ****     TxData[1] = COMMAND_WRITE;                          // CMD
 868              		.loc 1 252 0
 869 001c 0422     		movs	r2, #4
 870 001e 8DF80520 		strb	r2, [sp, #5]
 253:Src/B3M.c     ****     TxData[2] = OPTION_DEFAULT;                         // OPTION
 871              		.loc 1 253 0
 872 0022 0022     		movs	r2, #0
 873 0024 8DF80620 		strb	r2, [sp, #6]
 254:Src/B3M.c     ****     TxData[3] = SERVO_ID;                               // ID
 874              		.loc 1 254 0
 875 0028 9DF85800 		ldrb	r0, [sp, #88]	@ zero_extendqisi2
 876 002c 8DF80700 		strb	r0, [sp, #7]
 255:Src/B3M.c     ****     TxData[4] = (uint8_t)0x00FF & POSITION;             // POSITION_LSB
 877              		.loc 1 255 0
 878 0030 8DF80810 		strb	r1, [sp, #8]
 256:Src/B3M.c     ****     TxData[5] = (uint8_t)0x00FF & (POSITION >> 8);      // POSITION_MSB
 879              		.loc 1 256 0
 880 0034 C1F30721 		ubfx	r1, r1, #8, #8
 881              	.LVL98:
 882 0038 8DF80910 		strb	r1, [sp, #9]
 257:Src/B3M.c     ****     TxData[6] = (uint8_t)0x00FF & TIME;        			// TIME_LSB
 883              		.loc 1 257 0
 884 003c 8DF80A30 		strb	r3, [sp, #10]
ARM GAS  /tmp/cckyA7fG.s 			page 21


 258:Src/B3M.c     ****     TxData[7] = (uint8_t)0x00FF & (TIME >> 8);          // TIME_MSB
 885              		.loc 1 258 0
 886 0040 1B0A     		lsrs	r3, r3, #8
 887 0042 8DF80B30 		strb	r3, [sp, #11]
 888              	.LVL99:
 889              	.LBB10:
 259:Src/B3M.c     **** 
 260:Src/B3M.c     ****     /* CheckSum Calculation */
 261:Src/B3M.c     ****     for(uint8_t i=0; i<=7; i++){
 890              		.loc 1 261 0
 891 0046 1346     		mov	r3, r2
 892 0048 07E0     		b	.L34
 893              	.LVL100:
 894              	.L35:
 262:Src/B3M.c     ****         CheckSum = CheckSum + TxData[i];                // XOR from ID to Data
 895              		.loc 1 262 0 discriminator 3
 896 004a 04A9     		add	r1, sp, #16
 897 004c 1944     		add	r1, r1, r3
 898 004e 11F80C1C 		ldrb	r1, [r1, #-12]	@ zero_extendqisi2
 899 0052 0A44     		add	r2, r2, r1
 900              	.LVL101:
 901 0054 D2B2     		uxtb	r2, r2
 902              	.LVL102:
 261:Src/B3M.c     ****         CheckSum = CheckSum + TxData[i];                // XOR from ID to Data
 903              		.loc 1 261 0 discriminator 3
 904 0056 0133     		adds	r3, r3, #1
 905              	.LVL103:
 906 0058 DBB2     		uxtb	r3, r3
 907              	.LVL104:
 908              	.L34:
 261:Src/B3M.c     ****         CheckSum = CheckSum + TxData[i];                // XOR from ID to Data
 909              		.loc 1 261 0 is_stmt 0 discriminator 1
 910 005a 072B     		cmp	r3, #7
 911 005c F5D9     		bls	.L35
 912              	.LBE10:
 263:Src/B3M.c     ****     }
 264:Src/B3M.c     ****     CheckSum = (uint8_t)0x00FF & CheckSum;              // CHECKSUM
 265:Src/B3M.c     **** 
 266:Src/B3M.c     ****     TxData[8] = CheckSum;
 913              		.loc 1 266 0 is_stmt 1
 914 005e 8DF80C20 		strb	r2, [sp, #12]
 267:Src/B3M.c     **** 
 268:Src/B3M.c     ****     HAL_UART_Transmit(&huart, (uint8_t*)TxData, 9, HAL_MAX_DELAY);
 915              		.loc 1 268 0
 916 0062 4FF0FF33 		mov	r3, #-1
 917              	.LVL105:
 918 0066 0922     		movs	r2, #9
 919              	.LVL106:
 920 0068 01A9     		add	r1, sp, #4
 921 006a 06A8     		add	r0, sp, #24
 922 006c FFF7FEFF 		bl	HAL_UART_Transmit
 923              	.LVL107:
 269:Src/B3M.c     ****     HAL_Delay(1);
 924              		.loc 1 269 0
 925 0070 0120     		movs	r0, #1
 926 0072 FFF7FEFF 		bl	HAL_Delay
 927              	.LVL108:
ARM GAS  /tmp/cckyA7fG.s 			page 22


 270:Src/B3M.c     ****     return 0;
 271:Src/B3M.c     **** }
 928              		.loc 1 271 0
 929 0076 0020     		movs	r0, #0
 930 0078 05B0     		add	sp, sp, #20
 931              	.LCFI51:
 932              		.cfi_def_cfa_offset 20
 933              		@ sp needed
 934 007a 5DF804EB 		ldr	lr, [sp], #4
 935              	.LCFI52:
 936              		.cfi_restore 14
 937              		.cfi_def_cfa_offset 16
 938 007e 04B0     		add	sp, sp, #16
 939              	.LCFI53:
 940              		.cfi_def_cfa_offset 0
 941 0080 7047     		bx	lr
 942              		.cfi_endproc
 943              	.LFE132:
 945 0082 00BF     		.section	.text.B3M_RunNormal,"ax",%progbits
 946              		.align	2
 947              		.global	B3M_RunNormal
 948              		.thumb
 949              		.thumb_func
 951              	B3M_RunNormal:
 952              	.LFB133:
 272:Src/B3M.c     **** 
 273:Src/B3M.c     **** /** Servo Operation Modes
 274:Src/B3M.c     **** */
 275:Src/B3M.c     **** uint8_t B3M_RunNormal(UART_HandleTypeDef huart, uint8_t SERVO_ID)
 276:Src/B3M.c     **** {
 953              		.loc 1 276 0
 954              		.cfi_startproc
 955              		@ args = 68, pretend = 16, frame = 0
 956              		@ frame_needed = 0, uses_anonymous_args = 0
 957              	.LVL109:
 958 0000 84B0     		sub	sp, sp, #16
 959              	.LCFI54:
 960              		.cfi_def_cfa_offset 16
 961 0002 70B5     		push	{r4, r5, r6, lr}
 962              	.LCFI55:
 963              		.cfi_def_cfa_offset 32
 964              		.cfi_offset 4, -32
 965              		.cfi_offset 5, -28
 966              		.cfi_offset 6, -24
 967              		.cfi_offset 14, -20
 968 0004 90B0     		sub	sp, sp, #64
 969              	.LCFI56:
 970              		.cfi_def_cfa_offset 96
 971 0006 14AC     		add	r4, sp, #80
 972 0008 84E80F00 		stmia	r4, {r0, r1, r2, r3}
 277:Src/B3M.c     **** 	B3M_Write_1B(huart, SERVO_ID, OPERATION_MODE_RunNormal, SERVO_TORQUE_ON);
 973              		.loc 1 277 0
 974 000c 2823     		movs	r3, #40
 975 000e 0E93     		str	r3, [sp, #56]
 976 0010 0026     		movs	r6, #0
 977 0012 0D96     		str	r6, [sp, #52]
 978 0014 9DF89030 		ldrb	r3, [sp, #144]	@ zero_extendqisi2
ARM GAS  /tmp/cckyA7fG.s 			page 23


 979 0018 0C93     		str	r3, [sp, #48]
 980 001a 6C46     		mov	r4, sp
 981 001c 18AD     		add	r5, sp, #96
 982 001e 0FCD     		ldmia	r5!, {r0, r1, r2, r3}
 983 0020 0FC4     		stmia	r4!, {r0, r1, r2, r3}
 984 0022 0FCD     		ldmia	r5!, {r0, r1, r2, r3}
 985 0024 0FC4     		stmia	r4!, {r0, r1, r2, r3}
 986 0026 95E80F00 		ldmia	r5, {r0, r1, r2, r3}
 987 002a 84E80F00 		stmia	r4, {r0, r1, r2, r3}
 988 002e 14AB     		add	r3, sp, #80
 989 0030 0FCB     		ldmia	r3, {r0, r1, r2, r3}
 990 0032 FFF7FEFF 		bl	B3M_Write_1B
 991              	.LVL110:
 278:Src/B3M.c     **** 	return 0;
 279:Src/B3M.c     **** }
 992              		.loc 1 279 0
 993 0036 3046     		mov	r0, r6
 994 0038 10B0     		add	sp, sp, #64
 995              	.LCFI57:
 996              		.cfi_def_cfa_offset 32
 997              		@ sp needed
 998 003a BDE87040 		pop	{r4, r5, r6, lr}
 999              	.LCFI58:
 1000              		.cfi_restore 14
 1001              		.cfi_restore 6
 1002              		.cfi_restore 5
 1003              		.cfi_restore 4
 1004              		.cfi_def_cfa_offset 16
 1005 003e 04B0     		add	sp, sp, #16
 1006              	.LCFI59:
 1007              		.cfi_def_cfa_offset 0
 1008 0040 7047     		bx	lr
 1009              		.cfi_endproc
 1010              	.LFE133:
 1012 0042 00BF     		.section	.text.B3M_RunFree,"ax",%progbits
 1013              		.align	2
 1014              		.global	B3M_RunFree
 1015              		.thumb
 1016              		.thumb_func
 1018              	B3M_RunFree:
 1019              	.LFB134:
 280:Src/B3M.c     **** 
 281:Src/B3M.c     **** uint8_t B3M_RunFree(UART_HandleTypeDef huart, uint8_t SERVO_ID)
 282:Src/B3M.c     **** {
 1020              		.loc 1 282 0
 1021              		.cfi_startproc
 1022              		@ args = 68, pretend = 16, frame = 0
 1023              		@ frame_needed = 0, uses_anonymous_args = 0
 1024              	.LVL111:
 1025 0000 84B0     		sub	sp, sp, #16
 1026              	.LCFI60:
 1027              		.cfi_def_cfa_offset 16
 1028 0002 30B5     		push	{r4, r5, lr}
 1029              	.LCFI61:
 1030              		.cfi_def_cfa_offset 28
 1031              		.cfi_offset 4, -28
 1032              		.cfi_offset 5, -24
ARM GAS  /tmp/cckyA7fG.s 			page 24


 1033              		.cfi_offset 14, -20
 1034 0004 91B0     		sub	sp, sp, #68
 1035              	.LCFI62:
 1036              		.cfi_def_cfa_offset 96
 1037 0006 14AC     		add	r4, sp, #80
 1038 0008 84E80F00 		stmia	r4, {r0, r1, r2, r3}
 283:Src/B3M.c     **** 	B3M_Write_1B(huart, SERVO_ID, OPERATION_MODE_RunFree, SERVO_TORQUE_ON);
 1039              		.loc 1 283 0
 1040 000c 2823     		movs	r3, #40
 1041 000e 0E93     		str	r3, [sp, #56]
 1042 0010 0223     		movs	r3, #2
 1043 0012 0D93     		str	r3, [sp, #52]
 1044 0014 9DF89030 		ldrb	r3, [sp, #144]	@ zero_extendqisi2
 1045 0018 0C93     		str	r3, [sp, #48]
 1046 001a 6C46     		mov	r4, sp
 1047 001c 18AD     		add	r5, sp, #96
 1048 001e 0FCD     		ldmia	r5!, {r0, r1, r2, r3}
 1049 0020 0FC4     		stmia	r4!, {r0, r1, r2, r3}
 1050 0022 0FCD     		ldmia	r5!, {r0, r1, r2, r3}
 1051 0024 0FC4     		stmia	r4!, {r0, r1, r2, r3}
 1052 0026 95E80F00 		ldmia	r5, {r0, r1, r2, r3}
 1053 002a 84E80F00 		stmia	r4, {r0, r1, r2, r3}
 1054 002e 14AB     		add	r3, sp, #80
 1055 0030 0FCB     		ldmia	r3, {r0, r1, r2, r3}
 1056 0032 FFF7FEFF 		bl	B3M_Write_1B
 1057              	.LVL112:
 284:Src/B3M.c     **** 	return 0;
 285:Src/B3M.c     **** }
 1058              		.loc 1 285 0
 1059 0036 0020     		movs	r0, #0
 1060 0038 11B0     		add	sp, sp, #68
 1061              	.LCFI63:
 1062              		.cfi_def_cfa_offset 28
 1063              		@ sp needed
 1064 003a BDE83040 		pop	{r4, r5, lr}
 1065              	.LCFI64:
 1066              		.cfi_restore 14
 1067              		.cfi_restore 5
 1068              		.cfi_restore 4
 1069              		.cfi_def_cfa_offset 16
 1070 003e 04B0     		add	sp, sp, #16
 1071              	.LCFI65:
 1072              		.cfi_def_cfa_offset 0
 1073 0040 7047     		bx	lr
 1074              		.cfi_endproc
 1075              	.LFE134:
 1077 0042 00BF     		.section	.text.B3M_RunHold,"ax",%progbits
 1078              		.align	2
 1079              		.global	B3M_RunHold
 1080              		.thumb
 1081              		.thumb_func
 1083              	B3M_RunHold:
 1084              	.LFB135:
 286:Src/B3M.c     **** 
 287:Src/B3M.c     **** uint8_t B3M_RunHold(UART_HandleTypeDef huart, uint8_t SERVO_ID)
 288:Src/B3M.c     **** {
 1085              		.loc 1 288 0
ARM GAS  /tmp/cckyA7fG.s 			page 25


 1086              		.cfi_startproc
 1087              		@ args = 68, pretend = 16, frame = 0
 1088              		@ frame_needed = 0, uses_anonymous_args = 0
 1089              	.LVL113:
 1090 0000 84B0     		sub	sp, sp, #16
 1091              	.LCFI66:
 1092              		.cfi_def_cfa_offset 16
 1093 0002 30B5     		push	{r4, r5, lr}
 1094              	.LCFI67:
 1095              		.cfi_def_cfa_offset 28
 1096              		.cfi_offset 4, -28
 1097              		.cfi_offset 5, -24
 1098              		.cfi_offset 14, -20
 1099 0004 91B0     		sub	sp, sp, #68
 1100              	.LCFI68:
 1101              		.cfi_def_cfa_offset 96
 1102 0006 14AC     		add	r4, sp, #80
 1103 0008 84E80F00 		stmia	r4, {r0, r1, r2, r3}
 289:Src/B3M.c     **** 	B3M_Write_1B(huart, SERVO_ID, OPERATION_MODE_RunFree, SERVO_TORQUE_ON);
 1104              		.loc 1 289 0
 1105 000c 2823     		movs	r3, #40
 1106 000e 0E93     		str	r3, [sp, #56]
 1107 0010 0223     		movs	r3, #2
 1108 0012 0D93     		str	r3, [sp, #52]
 1109 0014 9DF89030 		ldrb	r3, [sp, #144]	@ zero_extendqisi2
 1110 0018 0C93     		str	r3, [sp, #48]
 1111 001a 6C46     		mov	r4, sp
 1112 001c 18AD     		add	r5, sp, #96
 1113 001e 0FCD     		ldmia	r5!, {r0, r1, r2, r3}
 1114 0020 0FC4     		stmia	r4!, {r0, r1, r2, r3}
 1115 0022 0FCD     		ldmia	r5!, {r0, r1, r2, r3}
 1116 0024 0FC4     		stmia	r4!, {r0, r1, r2, r3}
 1117 0026 95E80F00 		ldmia	r5, {r0, r1, r2, r3}
 1118 002a 84E80F00 		stmia	r4, {r0, r1, r2, r3}
 1119 002e 14AB     		add	r3, sp, #80
 1120 0030 0FCB     		ldmia	r3, {r0, r1, r2, r3}
 1121 0032 FFF7FEFF 		bl	B3M_Write_1B
 1122              	.LVL114:
 290:Src/B3M.c     **** 	return 0;
 291:Src/B3M.c     **** }
 1123              		.loc 1 291 0
 1124 0036 0020     		movs	r0, #0
 1125 0038 11B0     		add	sp, sp, #68
 1126              	.LCFI69:
 1127              		.cfi_def_cfa_offset 28
 1128              		@ sp needed
 1129 003a BDE83040 		pop	{r4, r5, lr}
 1130              	.LCFI70:
 1131              		.cfi_restore 14
 1132              		.cfi_restore 5
 1133              		.cfi_restore 4
 1134              		.cfi_def_cfa_offset 16
 1135 003e 04B0     		add	sp, sp, #16
 1136              	.LCFI71:
 1137              		.cfi_def_cfa_offset 0
 1138 0040 7047     		bx	lr
 1139              		.cfi_endproc
ARM GAS  /tmp/cckyA7fG.s 			page 26


 1140              	.LFE135:
 1142 0042 00BF     		.section	.text.B3M_ControlPosition,"ax",%progbits
 1143              		.align	2
 1144              		.global	B3M_ControlPosition
 1145              		.thumb
 1146              		.thumb_func
 1148              	B3M_ControlPosition:
 1149              	.LFB136:
 292:Src/B3M.c     **** 
 293:Src/B3M.c     **** uint8_t B3M_ControlPosition(UART_HandleTypeDef huart, uint8_t SERVO_ID)
 294:Src/B3M.c     **** {
 1150              		.loc 1 294 0
 1151              		.cfi_startproc
 1152              		@ args = 68, pretend = 16, frame = 0
 1153              		@ frame_needed = 0, uses_anonymous_args = 0
 1154              	.LVL115:
 1155 0000 84B0     		sub	sp, sp, #16
 1156              	.LCFI72:
 1157              		.cfi_def_cfa_offset 16
 1158 0002 70B5     		push	{r4, r5, r6, lr}
 1159              	.LCFI73:
 1160              		.cfi_def_cfa_offset 32
 1161              		.cfi_offset 4, -32
 1162              		.cfi_offset 5, -28
 1163              		.cfi_offset 6, -24
 1164              		.cfi_offset 14, -20
 1165 0004 90B0     		sub	sp, sp, #64
 1166              	.LCFI74:
 1167              		.cfi_def_cfa_offset 96
 1168 0006 14AC     		add	r4, sp, #80
 1169 0008 84E80F00 		stmia	r4, {r0, r1, r2, r3}
 295:Src/B3M.c     **** 	B3M_Write_1B(huart, SERVO_ID, OPERATION_MODE_ControlPosition, SERVO_TORQUE_ON);
 1170              		.loc 1 295 0
 1171 000c 2823     		movs	r3, #40
 1172 000e 0E93     		str	r3, [sp, #56]
 1173 0010 0026     		movs	r6, #0
 1174 0012 0D96     		str	r6, [sp, #52]
 1175 0014 9DF89030 		ldrb	r3, [sp, #144]	@ zero_extendqisi2
 1176 0018 0C93     		str	r3, [sp, #48]
 1177 001a 6C46     		mov	r4, sp
 1178 001c 18AD     		add	r5, sp, #96
 1179 001e 0FCD     		ldmia	r5!, {r0, r1, r2, r3}
 1180 0020 0FC4     		stmia	r4!, {r0, r1, r2, r3}
 1181 0022 0FCD     		ldmia	r5!, {r0, r1, r2, r3}
 1182 0024 0FC4     		stmia	r4!, {r0, r1, r2, r3}
 1183 0026 95E80F00 		ldmia	r5, {r0, r1, r2, r3}
 1184 002a 84E80F00 		stmia	r4, {r0, r1, r2, r3}
 1185 002e 14AB     		add	r3, sp, #80
 1186 0030 0FCB     		ldmia	r3, {r0, r1, r2, r3}
 1187 0032 FFF7FEFF 		bl	B3M_Write_1B
 1188              	.LVL116:
 296:Src/B3M.c     **** 	return 0;
 297:Src/B3M.c     **** }
 1189              		.loc 1 297 0
 1190 0036 3046     		mov	r0, r6
 1191 0038 10B0     		add	sp, sp, #64
 1192              	.LCFI75:
ARM GAS  /tmp/cckyA7fG.s 			page 27


 1193              		.cfi_def_cfa_offset 32
 1194              		@ sp needed
 1195 003a BDE87040 		pop	{r4, r5, r6, lr}
 1196              	.LCFI76:
 1197              		.cfi_restore 14
 1198              		.cfi_restore 6
 1199              		.cfi_restore 5
 1200              		.cfi_restore 4
 1201              		.cfi_def_cfa_offset 16
 1202 003e 04B0     		add	sp, sp, #16
 1203              	.LCFI77:
 1204              		.cfi_def_cfa_offset 0
 1205 0040 7047     		bx	lr
 1206              		.cfi_endproc
 1207              	.LFE136:
 1209 0042 00BF     		.section	.text.B3M_ControlVelocity,"ax",%progbits
 1210              		.align	2
 1211              		.global	B3M_ControlVelocity
 1212              		.thumb
 1213              		.thumb_func
 1215              	B3M_ControlVelocity:
 1216              	.LFB137:
 298:Src/B3M.c     **** 
 299:Src/B3M.c     **** /** Servo Control
 300:Src/B3M.c     **** */
 301:Src/B3M.c     **** uint8_t B3M_ControlVelocity(UART_HandleTypeDef huart, uint8_t SERVO_ID)
 302:Src/B3M.c     **** {
 1217              		.loc 1 302 0
 1218              		.cfi_startproc
 1219              		@ args = 68, pretend = 16, frame = 0
 1220              		@ frame_needed = 0, uses_anonymous_args = 0
 1221              	.LVL117:
 1222 0000 84B0     		sub	sp, sp, #16
 1223              	.LCFI78:
 1224              		.cfi_def_cfa_offset 16
 1225 0002 30B5     		push	{r4, r5, lr}
 1226              	.LCFI79:
 1227              		.cfi_def_cfa_offset 28
 1228              		.cfi_offset 4, -28
 1229              		.cfi_offset 5, -24
 1230              		.cfi_offset 14, -20
 1231 0004 91B0     		sub	sp, sp, #68
 1232              	.LCFI80:
 1233              		.cfi_def_cfa_offset 96
 1234 0006 14AC     		add	r4, sp, #80
 1235 0008 84E80F00 		stmia	r4, {r0, r1, r2, r3}
 303:Src/B3M.c     **** 	B3M_Write_1B(huart, SERVO_ID, OPERATION_MODE_ControlVelocity, SERVO_TORQUE_ON);
 1236              		.loc 1 303 0
 1237 000c 2823     		movs	r3, #40
 1238 000e 0E93     		str	r3, [sp, #56]
 1239 0010 0423     		movs	r3, #4
 1240 0012 0D93     		str	r3, [sp, #52]
 1241 0014 9DF89030 		ldrb	r3, [sp, #144]	@ zero_extendqisi2
 1242 0018 0C93     		str	r3, [sp, #48]
 1243 001a 6C46     		mov	r4, sp
 1244 001c 18AD     		add	r5, sp, #96
 1245 001e 0FCD     		ldmia	r5!, {r0, r1, r2, r3}
ARM GAS  /tmp/cckyA7fG.s 			page 28


 1246 0020 0FC4     		stmia	r4!, {r0, r1, r2, r3}
 1247 0022 0FCD     		ldmia	r5!, {r0, r1, r2, r3}
 1248 0024 0FC4     		stmia	r4!, {r0, r1, r2, r3}
 1249 0026 95E80F00 		ldmia	r5, {r0, r1, r2, r3}
 1250 002a 84E80F00 		stmia	r4, {r0, r1, r2, r3}
 1251 002e 14AB     		add	r3, sp, #80
 1252 0030 0FCB     		ldmia	r3, {r0, r1, r2, r3}
 1253 0032 FFF7FEFF 		bl	B3M_Write_1B
 1254              	.LVL118:
 304:Src/B3M.c     **** 	return 0;
 305:Src/B3M.c     **** }
 1255              		.loc 1 305 0
 1256 0036 0020     		movs	r0, #0
 1257 0038 11B0     		add	sp, sp, #68
 1258              	.LCFI81:
 1259              		.cfi_def_cfa_offset 28
 1260              		@ sp needed
 1261 003a BDE83040 		pop	{r4, r5, lr}
 1262              	.LCFI82:
 1263              		.cfi_restore 14
 1264              		.cfi_restore 5
 1265              		.cfi_restore 4
 1266              		.cfi_def_cfa_offset 16
 1267 003e 04B0     		add	sp, sp, #16
 1268              	.LCFI83:
 1269              		.cfi_def_cfa_offset 0
 1270 0040 7047     		bx	lr
 1271              		.cfi_endproc
 1272              	.LFE137:
 1274 0042 00BF     		.section	.text.B3M_ControlTorque,"ax",%progbits
 1275              		.align	2
 1276              		.global	B3M_ControlTorque
 1277              		.thumb
 1278              		.thumb_func
 1280              	B3M_ControlTorque:
 1281              	.LFB138:
 306:Src/B3M.c     **** 
 307:Src/B3M.c     **** uint8_t B3M_ControlTorque(UART_HandleTypeDef huart, uint8_t SERVO_ID)
 308:Src/B3M.c     **** {
 1282              		.loc 1 308 0
 1283              		.cfi_startproc
 1284              		@ args = 68, pretend = 16, frame = 0
 1285              		@ frame_needed = 0, uses_anonymous_args = 0
 1286              	.LVL119:
 1287 0000 84B0     		sub	sp, sp, #16
 1288              	.LCFI84:
 1289              		.cfi_def_cfa_offset 16
 1290 0002 30B5     		push	{r4, r5, lr}
 1291              	.LCFI85:
 1292              		.cfi_def_cfa_offset 28
 1293              		.cfi_offset 4, -28
 1294              		.cfi_offset 5, -24
 1295              		.cfi_offset 14, -20
 1296 0004 91B0     		sub	sp, sp, #68
 1297              	.LCFI86:
 1298              		.cfi_def_cfa_offset 96
 1299 0006 14AC     		add	r4, sp, #80
ARM GAS  /tmp/cckyA7fG.s 			page 29


 1300 0008 84E80F00 		stmia	r4, {r0, r1, r2, r3}
 309:Src/B3M.c     **** 	B3M_Write_1B(huart, SERVO_ID, OPERATION_MODE_ControlTorque, SERVO_TORQUE_ON);
 1301              		.loc 1 309 0
 1302 000c 2823     		movs	r3, #40
 1303 000e 0E93     		str	r3, [sp, #56]
 1304 0010 0823     		movs	r3, #8
 1305 0012 0D93     		str	r3, [sp, #52]
 1306 0014 9DF89030 		ldrb	r3, [sp, #144]	@ zero_extendqisi2
 1307 0018 0C93     		str	r3, [sp, #48]
 1308 001a 6C46     		mov	r4, sp
 1309 001c 18AD     		add	r5, sp, #96
 1310 001e 0FCD     		ldmia	r5!, {r0, r1, r2, r3}
 1311 0020 0FC4     		stmia	r4!, {r0, r1, r2, r3}
 1312 0022 0FCD     		ldmia	r5!, {r0, r1, r2, r3}
 1313 0024 0FC4     		stmia	r4!, {r0, r1, r2, r3}
 1314 0026 95E80F00 		ldmia	r5, {r0, r1, r2, r3}
 1315 002a 84E80F00 		stmia	r4, {r0, r1, r2, r3}
 1316 002e 14AB     		add	r3, sp, #80
 1317 0030 0FCB     		ldmia	r3, {r0, r1, r2, r3}
 1318 0032 FFF7FEFF 		bl	B3M_Write_1B
 1319              	.LVL120:
 310:Src/B3M.c     **** 	return 0;
 311:Src/B3M.c     **** }
 1320              		.loc 1 311 0
 1321 0036 0020     		movs	r0, #0
 1322 0038 11B0     		add	sp, sp, #68
 1323              	.LCFI87:
 1324              		.cfi_def_cfa_offset 28
 1325              		@ sp needed
 1326 003a BDE83040 		pop	{r4, r5, lr}
 1327              	.LCFI88:
 1328              		.cfi_restore 14
 1329              		.cfi_restore 5
 1330              		.cfi_restore 4
 1331              		.cfi_def_cfa_offset 16
 1332 003e 04B0     		add	sp, sp, #16
 1333              	.LCFI89:
 1334              		.cfi_def_cfa_offset 0
 1335 0040 7047     		bx	lr
 1336              		.cfi_endproc
 1337              	.LFE138:
 1339 0042 00BF     		.section	.text.B3M_ControlFeedForward,"ax",%progbits
 1340              		.align	2
 1341              		.global	B3M_ControlFeedForward
 1342              		.thumb
 1343              		.thumb_func
 1345              	B3M_ControlFeedForward:
 1346              	.LFB139:
 312:Src/B3M.c     **** 
 313:Src/B3M.c     **** uint8_t B3M_ControlFeedForward(UART_HandleTypeDef huart, uint8_t SERVO_ID)
 314:Src/B3M.c     **** {
 1347              		.loc 1 314 0
 1348              		.cfi_startproc
 1349              		@ args = 68, pretend = 16, frame = 0
 1350              		@ frame_needed = 0, uses_anonymous_args = 0
 1351              	.LVL121:
 1352 0000 84B0     		sub	sp, sp, #16
ARM GAS  /tmp/cckyA7fG.s 			page 30


 1353              	.LCFI90:
 1354              		.cfi_def_cfa_offset 16
 1355 0002 30B5     		push	{r4, r5, lr}
 1356              	.LCFI91:
 1357              		.cfi_def_cfa_offset 28
 1358              		.cfi_offset 4, -28
 1359              		.cfi_offset 5, -24
 1360              		.cfi_offset 14, -20
 1361 0004 91B0     		sub	sp, sp, #68
 1362              	.LCFI92:
 1363              		.cfi_def_cfa_offset 96
 1364 0006 14AC     		add	r4, sp, #80
 1365 0008 84E80F00 		stmia	r4, {r0, r1, r2, r3}
 315:Src/B3M.c     **** 	B3M_Write_1B(huart, SERVO_ID, OPERATION_MODE_ControlFForward, SERVO_TORQUE_ON);
 1366              		.loc 1 315 0
 1367 000c 2823     		movs	r3, #40
 1368 000e 0E93     		str	r3, [sp, #56]
 1369 0010 0C23     		movs	r3, #12
 1370 0012 0D93     		str	r3, [sp, #52]
 1371 0014 9DF89030 		ldrb	r3, [sp, #144]	@ zero_extendqisi2
 1372 0018 0C93     		str	r3, [sp, #48]
 1373 001a 6C46     		mov	r4, sp
 1374 001c 18AD     		add	r5, sp, #96
 1375 001e 0FCD     		ldmia	r5!, {r0, r1, r2, r3}
 1376 0020 0FC4     		stmia	r4!, {r0, r1, r2, r3}
 1377 0022 0FCD     		ldmia	r5!, {r0, r1, r2, r3}
 1378 0024 0FC4     		stmia	r4!, {r0, r1, r2, r3}
 1379 0026 95E80F00 		ldmia	r5, {r0, r1, r2, r3}
 1380 002a 84E80F00 		stmia	r4, {r0, r1, r2, r3}
 1381 002e 14AB     		add	r3, sp, #80
 1382 0030 0FCB     		ldmia	r3, {r0, r1, r2, r3}
 1383 0032 FFF7FEFF 		bl	B3M_Write_1B
 1384              	.LVL122:
 316:Src/B3M.c     **** 	return 0;
 317:Src/B3M.c     **** }
 1385              		.loc 1 317 0
 1386 0036 0020     		movs	r0, #0
 1387 0038 11B0     		add	sp, sp, #68
 1388              	.LCFI93:
 1389              		.cfi_def_cfa_offset 28
 1390              		@ sp needed
 1391 003a BDE83040 		pop	{r4, r5, lr}
 1392              	.LCFI94:
 1393              		.cfi_restore 14
 1394              		.cfi_restore 5
 1395              		.cfi_restore 4
 1396              		.cfi_def_cfa_offset 16
 1397 003e 04B0     		add	sp, sp, #16
 1398              	.LCFI95:
 1399              		.cfi_def_cfa_offset 0
 1400 0040 7047     		bx	lr
 1401              		.cfi_endproc
 1402              	.LFE139:
 1404 0042 00BF     		.section	.text.B3M_ServoNormal,"ax",%progbits
 1405              		.align	2
 1406              		.global	B3M_ServoNormal
 1407              		.thumb
ARM GAS  /tmp/cckyA7fG.s 			page 31


 1408              		.thumb_func
 1410              	B3M_ServoNormal:
 1411              	.LFB140:
 318:Src/B3M.c     **** 
 319:Src/B3M.c     **** /** Servo Options
 320:Src/B3M.c     **** */
 321:Src/B3M.c     **** uint8_t B3M_ServoNormal(UART_HandleTypeDef huart, uint8_t SERVO_ID)
 322:Src/B3M.c     **** {
 1412              		.loc 1 322 0
 1413              		.cfi_startproc
 1414              		@ args = 68, pretend = 16, frame = 0
 1415              		@ frame_needed = 0, uses_anonymous_args = 0
 1416              	.LVL123:
 1417 0000 84B0     		sub	sp, sp, #16
 1418              	.LCFI96:
 1419              		.cfi_def_cfa_offset 16
 1420 0002 70B5     		push	{r4, r5, r6, lr}
 1421              	.LCFI97:
 1422              		.cfi_def_cfa_offset 32
 1423              		.cfi_offset 4, -32
 1424              		.cfi_offset 5, -28
 1425              		.cfi_offset 6, -24
 1426              		.cfi_offset 14, -20
 1427 0004 90B0     		sub	sp, sp, #64
 1428              	.LCFI98:
 1429              		.cfi_def_cfa_offset 96
 1430 0006 14AC     		add	r4, sp, #80
 1431 0008 84E80F00 		stmia	r4, {r0, r1, r2, r3}
 323:Src/B3M.c     **** 	B3M_Write_1B(huart, SERVO_ID, OPERATION_MODE_ServoNormal, SERVO_TORQUE_ON);
 1432              		.loc 1 323 0
 1433 000c 2823     		movs	r3, #40
 1434 000e 0E93     		str	r3, [sp, #56]
 1435 0010 0026     		movs	r6, #0
 1436 0012 0D96     		str	r6, [sp, #52]
 1437 0014 9DF89030 		ldrb	r3, [sp, #144]	@ zero_extendqisi2
 1438 0018 0C93     		str	r3, [sp, #48]
 1439 001a 6C46     		mov	r4, sp
 1440 001c 18AD     		add	r5, sp, #96
 1441 001e 0FCD     		ldmia	r5!, {r0, r1, r2, r3}
 1442 0020 0FC4     		stmia	r4!, {r0, r1, r2, r3}
 1443 0022 0FCD     		ldmia	r5!, {r0, r1, r2, r3}
 1444 0024 0FC4     		stmia	r4!, {r0, r1, r2, r3}
 1445 0026 95E80F00 		ldmia	r5, {r0, r1, r2, r3}
 1446 002a 84E80F00 		stmia	r4, {r0, r1, r2, r3}
 1447 002e 14AB     		add	r3, sp, #80
 1448 0030 0FCB     		ldmia	r3, {r0, r1, r2, r3}
 1449 0032 FFF7FEFF 		bl	B3M_Write_1B
 1450              	.LVL124:
 324:Src/B3M.c     **** 	return 0;
 325:Src/B3M.c     **** }
 1451              		.loc 1 325 0
 1452 0036 3046     		mov	r0, r6
 1453 0038 10B0     		add	sp, sp, #64
 1454              	.LCFI99:
 1455              		.cfi_def_cfa_offset 32
 1456              		@ sp needed
 1457 003a BDE87040 		pop	{r4, r5, r6, lr}
ARM GAS  /tmp/cckyA7fG.s 			page 32


 1458              	.LCFI100:
 1459              		.cfi_restore 14
 1460              		.cfi_restore 6
 1461              		.cfi_restore 5
 1462              		.cfi_restore 4
 1463              		.cfi_def_cfa_offset 16
 1464 003e 04B0     		add	sp, sp, #16
 1465              	.LCFI101:
 1466              		.cfi_def_cfa_offset 0
 1467 0040 7047     		bx	lr
 1468              		.cfi_endproc
 1469              	.LFE140:
 1471 0042 00BF     		.section	.text.B3M_ServoClone,"ax",%progbits
 1472              		.align	2
 1473              		.global	B3M_ServoClone
 1474              		.thumb
 1475              		.thumb_func
 1477              	B3M_ServoClone:
 1478              	.LFB141:
 326:Src/B3M.c     **** 
 327:Src/B3M.c     **** void B3M_ServoClone(UART_HandleTypeDef huart, uint8_t SERVO_ID)
 328:Src/B3M.c     **** {
 1479              		.loc 1 328 0
 1480              		.cfi_startproc
 1481              		@ args = 68, pretend = 16, frame = 0
 1482              		@ frame_needed = 0, uses_anonymous_args = 0
 1483              	.LVL125:
 1484 0000 84B0     		sub	sp, sp, #16
 1485              	.LCFI102:
 1486              		.cfi_def_cfa_offset 16
 1487 0002 30B5     		push	{r4, r5, lr}
 1488              	.LCFI103:
 1489              		.cfi_def_cfa_offset 28
 1490              		.cfi_offset 4, -28
 1491              		.cfi_offset 5, -24
 1492              		.cfi_offset 14, -20
 1493 0004 91B0     		sub	sp, sp, #68
 1494              	.LCFI104:
 1495              		.cfi_def_cfa_offset 96
 1496 0006 14AC     		add	r4, sp, #80
 1497 0008 84E80F00 		stmia	r4, {r0, r1, r2, r3}
 329:Src/B3M.c     **** 	B3M_Write_1B(huart, SERVO_ID, OPERATION_MODE_ServoClone, SERVO_TORQUE_ON);
 1498              		.loc 1 329 0
 1499 000c 2823     		movs	r3, #40
 1500 000e 0E93     		str	r3, [sp, #56]
 1501 0010 4023     		movs	r3, #64
 1502 0012 0D93     		str	r3, [sp, #52]
 1503 0014 9DF89030 		ldrb	r3, [sp, #144]	@ zero_extendqisi2
 1504 0018 0C93     		str	r3, [sp, #48]
 1505 001a 6C46     		mov	r4, sp
 1506 001c 18AD     		add	r5, sp, #96
 1507 001e 0FCD     		ldmia	r5!, {r0, r1, r2, r3}
 1508 0020 0FC4     		stmia	r4!, {r0, r1, r2, r3}
 1509 0022 0FCD     		ldmia	r5!, {r0, r1, r2, r3}
 1510 0024 0FC4     		stmia	r4!, {r0, r1, r2, r3}
 1511 0026 95E80F00 		ldmia	r5, {r0, r1, r2, r3}
 1512 002a 84E80F00 		stmia	r4, {r0, r1, r2, r3}
ARM GAS  /tmp/cckyA7fG.s 			page 33


 1513 002e 14AB     		add	r3, sp, #80
 1514 0030 0FCB     		ldmia	r3, {r0, r1, r2, r3}
 1515 0032 FFF7FEFF 		bl	B3M_Write_1B
 1516              	.LVL126:
 330:Src/B3M.c     **** }
 1517              		.loc 1 330 0
 1518 0036 11B0     		add	sp, sp, #68
 1519              	.LCFI105:
 1520              		.cfi_def_cfa_offset 28
 1521              		@ sp needed
 1522 0038 BDE83040 		pop	{r4, r5, lr}
 1523              	.LCFI106:
 1524              		.cfi_restore 14
 1525              		.cfi_restore 5
 1526              		.cfi_restore 4
 1527              		.cfi_def_cfa_offset 16
 1528 003c 04B0     		add	sp, sp, #16
 1529              	.LCFI107:
 1530              		.cfi_def_cfa_offset 0
 1531 003e 7047     		bx	lr
 1532              		.cfi_endproc
 1533              	.LFE141:
 1535              		.section	.text.B3M_ServoReverse,"ax",%progbits
 1536              		.align	2
 1537              		.global	B3M_ServoReverse
 1538              		.thumb
 1539              		.thumb_func
 1541              	B3M_ServoReverse:
 1542              	.LFB142:
 331:Src/B3M.c     **** 
 332:Src/B3M.c     **** uint8_t B3M_ServoReverse(UART_HandleTypeDef huart, uint8_t SERVO_ID)
 333:Src/B3M.c     **** {
 1543              		.loc 1 333 0
 1544              		.cfi_startproc
 1545              		@ args = 68, pretend = 16, frame = 0
 1546              		@ frame_needed = 0, uses_anonymous_args = 0
 1547              	.LVL127:
 1548 0000 84B0     		sub	sp, sp, #16
 1549              	.LCFI108:
 1550              		.cfi_def_cfa_offset 16
 1551 0002 30B5     		push	{r4, r5, lr}
 1552              	.LCFI109:
 1553              		.cfi_def_cfa_offset 28
 1554              		.cfi_offset 4, -28
 1555              		.cfi_offset 5, -24
 1556              		.cfi_offset 14, -20
 1557 0004 91B0     		sub	sp, sp, #68
 1558              	.LCFI110:
 1559              		.cfi_def_cfa_offset 96
 1560 0006 14AC     		add	r4, sp, #80
 1561 0008 84E80F00 		stmia	r4, {r0, r1, r2, r3}
 334:Src/B3M.c     **** 	B3M_Write_1B(huart, SERVO_ID, OPERATION_MODE_ServoReverse, SERVO_TORQUE_ON);
 1562              		.loc 1 334 0
 1563 000c 2823     		movs	r3, #40
 1564 000e 0E93     		str	r3, [sp, #56]
 1565 0010 8023     		movs	r3, #128
 1566 0012 0D93     		str	r3, [sp, #52]
ARM GAS  /tmp/cckyA7fG.s 			page 34


 1567 0014 9DF89030 		ldrb	r3, [sp, #144]	@ zero_extendqisi2
 1568 0018 0C93     		str	r3, [sp, #48]
 1569 001a 6C46     		mov	r4, sp
 1570 001c 18AD     		add	r5, sp, #96
 1571 001e 0FCD     		ldmia	r5!, {r0, r1, r2, r3}
 1572 0020 0FC4     		stmia	r4!, {r0, r1, r2, r3}
 1573 0022 0FCD     		ldmia	r5!, {r0, r1, r2, r3}
 1574 0024 0FC4     		stmia	r4!, {r0, r1, r2, r3}
 1575 0026 95E80F00 		ldmia	r5, {r0, r1, r2, r3}
 1576 002a 84E80F00 		stmia	r4, {r0, r1, r2, r3}
 1577 002e 14AB     		add	r3, sp, #80
 1578 0030 0FCB     		ldmia	r3, {r0, r1, r2, r3}
 1579 0032 FFF7FEFF 		bl	B3M_Write_1B
 1580              	.LVL128:
 335:Src/B3M.c     **** 	return 0;
 336:Src/B3M.c     **** }
 1581              		.loc 1 336 0
 1582 0036 0020     		movs	r0, #0
 1583 0038 11B0     		add	sp, sp, #68
 1584              	.LCFI111:
 1585              		.cfi_def_cfa_offset 28
 1586              		@ sp needed
 1587 003a BDE83040 		pop	{r4, r5, lr}
 1588              	.LCFI112:
 1589              		.cfi_restore 14
 1590              		.cfi_restore 5
 1591              		.cfi_restore 4
 1592              		.cfi_def_cfa_offset 16
 1593 003e 04B0     		add	sp, sp, #16
 1594              	.LCFI113:
 1595              		.cfi_def_cfa_offset 0
 1596 0040 7047     		bx	lr
 1597              		.cfi_endproc
 1598              	.LFE142:
 1600 0042 00BF     		.section	.text.B3M_SystemID_Read,"ax",%progbits
 1601              		.align	2
 1602              		.global	B3M_SystemID_Read
 1603              		.thumb
 1604              		.thumb_func
 1606              	B3M_SystemID_Read:
 1607              	.LFB143:
 337:Src/B3M.c     **** 
 338:Src/B3M.c     **** /** System Commands
 339:Src/B3M.c     **** */
 340:Src/B3M.c     **** uint8_t B3M_SystemID_Read(UART_HandleTypeDef huart, uint8_t SERVO_ID)
 341:Src/B3M.c     **** {
 1608              		.loc 1 341 0
 1609              		.cfi_startproc
 1610              		@ args = 68, pretend = 16, frame = 0
 1611              		@ frame_needed = 0, uses_anonymous_args = 0
 1612              	.LVL129:
 1613 0000 84B0     		sub	sp, sp, #16
 1614              	.LCFI114:
 1615              		.cfi_def_cfa_offset 16
 1616 0002 70B5     		push	{r4, r5, r6, lr}
 1617              	.LCFI115:
 1618              		.cfi_def_cfa_offset 32
ARM GAS  /tmp/cckyA7fG.s 			page 35


 1619              		.cfi_offset 4, -32
 1620              		.cfi_offset 5, -28
 1621              		.cfi_offset 6, -24
 1622              		.cfi_offset 14, -20
 1623 0004 90B0     		sub	sp, sp, #64
 1624              	.LCFI116:
 1625              		.cfi_def_cfa_offset 96
 1626 0006 14AC     		add	r4, sp, #80
 1627 0008 84E80F00 		stmia	r4, {r0, r1, r2, r3}
 342:Src/B3M.c     **** 	B3M_Read(huart, SERVO_ID, SYSTEM_ID, READ_LENGTH_1B);
 1628              		.loc 1 342 0
 1629 000c 0123     		movs	r3, #1
 1630 000e 0E93     		str	r3, [sp, #56]
 1631 0010 0026     		movs	r6, #0
 1632 0012 0D96     		str	r6, [sp, #52]
 1633 0014 9DF89030 		ldrb	r3, [sp, #144]	@ zero_extendqisi2
 1634 0018 0C93     		str	r3, [sp, #48]
 1635 001a 6C46     		mov	r4, sp
 1636 001c 18AD     		add	r5, sp, #96
 1637 001e 0FCD     		ldmia	r5!, {r0, r1, r2, r3}
 1638 0020 0FC4     		stmia	r4!, {r0, r1, r2, r3}
 1639 0022 0FCD     		ldmia	r5!, {r0, r1, r2, r3}
 1640 0024 0FC4     		stmia	r4!, {r0, r1, r2, r3}
 1641 0026 95E80F00 		ldmia	r5, {r0, r1, r2, r3}
 1642 002a 84E80F00 		stmia	r4, {r0, r1, r2, r3}
 1643 002e 14AB     		add	r3, sp, #80
 1644 0030 0FCB     		ldmia	r3, {r0, r1, r2, r3}
 1645 0032 FFF7FEFF 		bl	B3M_Read
 1646              	.LVL130:
 343:Src/B3M.c     **** 	return 0;
 344:Src/B3M.c     **** }
 1647              		.loc 1 344 0
 1648 0036 3046     		mov	r0, r6
 1649 0038 10B0     		add	sp, sp, #64
 1650              	.LCFI117:
 1651              		.cfi_def_cfa_offset 32
 1652              		@ sp needed
 1653 003a BDE87040 		pop	{r4, r5, r6, lr}
 1654              	.LCFI118:
 1655              		.cfi_restore 14
 1656              		.cfi_restore 6
 1657              		.cfi_restore 5
 1658              		.cfi_restore 4
 1659              		.cfi_def_cfa_offset 16
 1660 003e 04B0     		add	sp, sp, #16
 1661              	.LCFI119:
 1662              		.cfi_def_cfa_offset 0
 1663 0040 7047     		bx	lr
 1664              		.cfi_endproc
 1665              	.LFE143:
 1667 0042 00BF     		.section	.text.B3M_SystemID_Write,"ax",%progbits
 1668              		.align	2
 1669              		.global	B3M_SystemID_Write
 1670              		.thumb
 1671              		.thumb_func
 1673              	B3M_SystemID_Write:
 1674              	.LFB144:
ARM GAS  /tmp/cckyA7fG.s 			page 36


 345:Src/B3M.c     **** 
 346:Src/B3M.c     **** uint8_t B3M_SystemID_Write(UART_HandleTypeDef huart, uint8_t SERVO_ID, uint8_t NEW_SERVO_ID)
 347:Src/B3M.c     **** {
 1675              		.loc 1 347 0
 1676              		.cfi_startproc
 1677              		@ args = 72, pretend = 16, frame = 0
 1678              		@ frame_needed = 0, uses_anonymous_args = 0
 1679              	.LVL131:
 1680 0000 84B0     		sub	sp, sp, #16
 1681              	.LCFI120:
 1682              		.cfi_def_cfa_offset 16
 1683 0002 70B5     		push	{r4, r5, r6, lr}
 1684              	.LCFI121:
 1685              		.cfi_def_cfa_offset 32
 1686              		.cfi_offset 4, -32
 1687              		.cfi_offset 5, -28
 1688              		.cfi_offset 6, -24
 1689              		.cfi_offset 14, -20
 1690 0004 90B0     		sub	sp, sp, #64
 1691              	.LCFI122:
 1692              		.cfi_def_cfa_offset 96
 1693 0006 14AC     		add	r4, sp, #80
 1694 0008 84E80F00 		stmia	r4, {r0, r1, r2, r3}
 348:Src/B3M.c     **** 	B3M_Write_1B(huart, SERVO_ID, NEW_SERVO_ID, SYSTEM_ID);
 1695              		.loc 1 348 0
 1696 000c 0026     		movs	r6, #0
 1697 000e 0E96     		str	r6, [sp, #56]
 1698 0010 9DF89430 		ldrb	r3, [sp, #148]	@ zero_extendqisi2
 1699 0014 0D93     		str	r3, [sp, #52]
 1700 0016 9DF89030 		ldrb	r3, [sp, #144]	@ zero_extendqisi2
 1701 001a 0C93     		str	r3, [sp, #48]
 1702 001c 6C46     		mov	r4, sp
 1703 001e 18AD     		add	r5, sp, #96
 1704 0020 0FCD     		ldmia	r5!, {r0, r1, r2, r3}
 1705 0022 0FC4     		stmia	r4!, {r0, r1, r2, r3}
 1706 0024 0FCD     		ldmia	r5!, {r0, r1, r2, r3}
 1707 0026 0FC4     		stmia	r4!, {r0, r1, r2, r3}
 1708 0028 95E80F00 		ldmia	r5, {r0, r1, r2, r3}
 1709 002c 84E80F00 		stmia	r4, {r0, r1, r2, r3}
 1710 0030 14AB     		add	r3, sp, #80
 1711 0032 0FCB     		ldmia	r3, {r0, r1, r2, r3}
 1712 0034 FFF7FEFF 		bl	B3M_Write_1B
 1713              	.LVL132:
 349:Src/B3M.c     **** 	return 0;
 350:Src/B3M.c     **** }
 1714              		.loc 1 350 0
 1715 0038 3046     		mov	r0, r6
 1716 003a 10B0     		add	sp, sp, #64
 1717              	.LCFI123:
 1718              		.cfi_def_cfa_offset 32
 1719              		@ sp needed
 1720 003c BDE87040 		pop	{r4, r5, r6, lr}
 1721              	.LCFI124:
 1722              		.cfi_restore 14
 1723              		.cfi_restore 6
 1724              		.cfi_restore 5
 1725              		.cfi_restore 4
ARM GAS  /tmp/cckyA7fG.s 			page 37


 1726              		.cfi_def_cfa_offset 16
 1727 0040 04B0     		add	sp, sp, #16
 1728              	.LCFI125:
 1729              		.cfi_def_cfa_offset 0
 1730 0042 7047     		bx	lr
 1731              		.cfi_endproc
 1732              	.LFE144:
 1734              		.section	.text.B3M_SystemBaudrate_Read,"ax",%progbits
 1735              		.align	2
 1736              		.global	B3M_SystemBaudrate_Read
 1737              		.thumb
 1738              		.thumb_func
 1740              	B3M_SystemBaudrate_Read:
 1741              	.LFB145:
 351:Src/B3M.c     **** 
 352:Src/B3M.c     **** uint8_t B3M_SystemBaudrate_Read(UART_HandleTypeDef huart, uint8_t SERVO_ID)
 353:Src/B3M.c     **** {
 1742              		.loc 1 353 0
 1743              		.cfi_startproc
 1744              		@ args = 68, pretend = 16, frame = 0
 1745              		@ frame_needed = 0, uses_anonymous_args = 0
 1746              	.LVL133:
 1747 0000 84B0     		sub	sp, sp, #16
 1748              	.LCFI126:
 1749              		.cfi_def_cfa_offset 16
 1750 0002 30B5     		push	{r4, r5, lr}
 1751              	.LCFI127:
 1752              		.cfi_def_cfa_offset 28
 1753              		.cfi_offset 4, -28
 1754              		.cfi_offset 5, -24
 1755              		.cfi_offset 14, -20
 1756 0004 91B0     		sub	sp, sp, #68
 1757              	.LCFI128:
 1758              		.cfi_def_cfa_offset 96
 1759 0006 14AC     		add	r4, sp, #80
 1760 0008 84E80F00 		stmia	r4, {r0, r1, r2, r3}
 354:Src/B3M.c     **** 	B3M_Read(huart, SERVO_ID, SYSTEM_BAUDRATE, READ_LENGTH_4B);
 1761              		.loc 1 354 0
 1762 000c 0423     		movs	r3, #4
 1763 000e 0E93     		str	r3, [sp, #56]
 1764 0010 0123     		movs	r3, #1
 1765 0012 0D93     		str	r3, [sp, #52]
 1766 0014 9DF89030 		ldrb	r3, [sp, #144]	@ zero_extendqisi2
 1767 0018 0C93     		str	r3, [sp, #48]
 1768 001a 6C46     		mov	r4, sp
 1769 001c 18AD     		add	r5, sp, #96
 1770 001e 0FCD     		ldmia	r5!, {r0, r1, r2, r3}
 1771 0020 0FC4     		stmia	r4!, {r0, r1, r2, r3}
 1772 0022 0FCD     		ldmia	r5!, {r0, r1, r2, r3}
 1773 0024 0FC4     		stmia	r4!, {r0, r1, r2, r3}
 1774 0026 95E80F00 		ldmia	r5, {r0, r1, r2, r3}
 1775 002a 84E80F00 		stmia	r4, {r0, r1, r2, r3}
 1776 002e 14AB     		add	r3, sp, #80
 1777 0030 0FCB     		ldmia	r3, {r0, r1, r2, r3}
 1778 0032 FFF7FEFF 		bl	B3M_Read
 1779              	.LVL134:
 355:Src/B3M.c     **** 	return 0;
ARM GAS  /tmp/cckyA7fG.s 			page 38


 356:Src/B3M.c     **** }
 1780              		.loc 1 356 0
 1781 0036 0020     		movs	r0, #0
 1782 0038 11B0     		add	sp, sp, #68
 1783              	.LCFI129:
 1784              		.cfi_def_cfa_offset 28
 1785              		@ sp needed
 1786 003a BDE83040 		pop	{r4, r5, lr}
 1787              	.LCFI130:
 1788              		.cfi_restore 14
 1789              		.cfi_restore 5
 1790              		.cfi_restore 4
 1791              		.cfi_def_cfa_offset 16
 1792 003e 04B0     		add	sp, sp, #16
 1793              	.LCFI131:
 1794              		.cfi_def_cfa_offset 0
 1795 0040 7047     		bx	lr
 1796              		.cfi_endproc
 1797              	.LFE145:
 1799 0042 00BF     		.section	.text.B3M_SystemBaudrate_Write,"ax",%progbits
 1800              		.align	2
 1801              		.global	B3M_SystemBaudrate_Write
 1802              		.thumb
 1803              		.thumb_func
 1805              	B3M_SystemBaudrate_Write:
 1806              	.LFB146:
 357:Src/B3M.c     **** 
 358:Src/B3M.c     **** uint8_t B3M_SystemBaudrate_Write(UART_HandleTypeDef huart, uint8_t SERVO_ID, uint32_t NEW_BAUDRATE)
 359:Src/B3M.c     **** {
 1807              		.loc 1 359 0
 1808              		.cfi_startproc
 1809              		@ args = 72, pretend = 16, frame = 0
 1810              		@ frame_needed = 0, uses_anonymous_args = 0
 1811              	.LVL135:
 1812 0000 84B0     		sub	sp, sp, #16
 1813              	.LCFI132:
 1814              		.cfi_def_cfa_offset 16
 1815 0002 30B5     		push	{r4, r5, lr}
 1816              	.LCFI133:
 1817              		.cfi_def_cfa_offset 28
 1818              		.cfi_offset 4, -28
 1819              		.cfi_offset 5, -24
 1820              		.cfi_offset 14, -20
 1821 0004 91B0     		sub	sp, sp, #68
 1822              	.LCFI134:
 1823              		.cfi_def_cfa_offset 96
 1824 0006 14AC     		add	r4, sp, #80
 1825 0008 84E80F00 		stmia	r4, {r0, r1, r2, r3}
 360:Src/B3M.c     **** 	B3M_Write_4B(huart, SERVO_ID, NEW_BAUDRATE, SYSTEM_BAUDRATE);
 1826              		.loc 1 360 0
 1827 000c 0123     		movs	r3, #1
 1828 000e 0E93     		str	r3, [sp, #56]
 1829 0010 BDF89430 		ldrh	r3, [sp, #148]
 1830 0014 0D93     		str	r3, [sp, #52]
 1831 0016 9DF89030 		ldrb	r3, [sp, #144]	@ zero_extendqisi2
 1832 001a 0C93     		str	r3, [sp, #48]
 1833 001c 6C46     		mov	r4, sp
ARM GAS  /tmp/cckyA7fG.s 			page 39


 1834 001e 18AD     		add	r5, sp, #96
 1835 0020 0FCD     		ldmia	r5!, {r0, r1, r2, r3}
 1836 0022 0FC4     		stmia	r4!, {r0, r1, r2, r3}
 1837 0024 0FCD     		ldmia	r5!, {r0, r1, r2, r3}
 1838 0026 0FC4     		stmia	r4!, {r0, r1, r2, r3}
 1839 0028 95E80F00 		ldmia	r5, {r0, r1, r2, r3}
 1840 002c 84E80F00 		stmia	r4, {r0, r1, r2, r3}
 1841 0030 14AB     		add	r3, sp, #80
 1842 0032 0FCB     		ldmia	r3, {r0, r1, r2, r3}
 1843 0034 FFF7FEFF 		bl	B3M_Write_4B
 1844              	.LVL136:
 361:Src/B3M.c     **** 	return 0;
 362:Src/B3M.c     **** }
 1845              		.loc 1 362 0
 1846 0038 0020     		movs	r0, #0
 1847 003a 11B0     		add	sp, sp, #68
 1848              	.LCFI135:
 1849              		.cfi_def_cfa_offset 28
 1850              		@ sp needed
 1851 003c BDE83040 		pop	{r4, r5, lr}
 1852              	.LCFI136:
 1853              		.cfi_restore 14
 1854              		.cfi_restore 5
 1855              		.cfi_restore 4
 1856              		.cfi_def_cfa_offset 16
 1857 0040 04B0     		add	sp, sp, #16
 1858              	.LCFI137:
 1859              		.cfi_def_cfa_offset 0
 1860 0042 7047     		bx	lr
 1861              		.cfi_endproc
 1862              	.LFE146:
 1864              		.section	.text.B3M_PositionMin_Read,"ax",%progbits
 1865              		.align	2
 1866              		.global	B3M_PositionMin_Read
 1867              		.thumb
 1868              		.thumb_func
 1870              	B3M_PositionMin_Read:
 1871              	.LFB147:
 363:Src/B3M.c     **** 
 364:Src/B3M.c     **** uint8_t B3M_PositionMin_Read(UART_HandleTypeDef huart, uint8_t SERVO_ID)
 365:Src/B3M.c     **** {
 1872              		.loc 1 365 0
 1873              		.cfi_startproc
 1874              		@ args = 68, pretend = 16, frame = 0
 1875              		@ frame_needed = 0, uses_anonymous_args = 0
 1876              	.LVL137:
 1877 0000 84B0     		sub	sp, sp, #16
 1878              	.LCFI138:
 1879              		.cfi_def_cfa_offset 16
 1880 0002 30B5     		push	{r4, r5, lr}
 1881              	.LCFI139:
 1882              		.cfi_def_cfa_offset 28
 1883              		.cfi_offset 4, -28
 1884              		.cfi_offset 5, -24
 1885              		.cfi_offset 14, -20
 1886 0004 91B0     		sub	sp, sp, #68
 1887              	.LCFI140:
ARM GAS  /tmp/cckyA7fG.s 			page 40


 1888              		.cfi_def_cfa_offset 96
 1889 0006 14AC     		add	r4, sp, #80
 1890 0008 84E80F00 		stmia	r4, {r0, r1, r2, r3}
 366:Src/B3M.c     **** 	B3M_Read(huart, SERVO_ID, SYSTEM_POSITION_MIN, READ_LENGTH_2B);
 1891              		.loc 1 366 0
 1892 000c 0223     		movs	r3, #2
 1893 000e 0E93     		str	r3, [sp, #56]
 1894 0010 0523     		movs	r3, #5
 1895 0012 0D93     		str	r3, [sp, #52]
 1896 0014 9DF89030 		ldrb	r3, [sp, #144]	@ zero_extendqisi2
 1897 0018 0C93     		str	r3, [sp, #48]
 1898 001a 6C46     		mov	r4, sp
 1899 001c 18AD     		add	r5, sp, #96
 1900 001e 0FCD     		ldmia	r5!, {r0, r1, r2, r3}
 1901 0020 0FC4     		stmia	r4!, {r0, r1, r2, r3}
 1902 0022 0FCD     		ldmia	r5!, {r0, r1, r2, r3}
 1903 0024 0FC4     		stmia	r4!, {r0, r1, r2, r3}
 1904 0026 95E80F00 		ldmia	r5, {r0, r1, r2, r3}
 1905 002a 84E80F00 		stmia	r4, {r0, r1, r2, r3}
 1906 002e 14AB     		add	r3, sp, #80
 1907 0030 0FCB     		ldmia	r3, {r0, r1, r2, r3}
 1908 0032 FFF7FEFF 		bl	B3M_Read
 1909              	.LVL138:
 367:Src/B3M.c     **** 	return 0;
 368:Src/B3M.c     **** }
 1910              		.loc 1 368 0
 1911 0036 0020     		movs	r0, #0
 1912 0038 11B0     		add	sp, sp, #68
 1913              	.LCFI141:
 1914              		.cfi_def_cfa_offset 28
 1915              		@ sp needed
 1916 003a BDE83040 		pop	{r4, r5, lr}
 1917              	.LCFI142:
 1918              		.cfi_restore 14
 1919              		.cfi_restore 5
 1920              		.cfi_restore 4
 1921              		.cfi_def_cfa_offset 16
 1922 003e 04B0     		add	sp, sp, #16
 1923              	.LCFI143:
 1924              		.cfi_def_cfa_offset 0
 1925 0040 7047     		bx	lr
 1926              		.cfi_endproc
 1927              	.LFE147:
 1929 0042 00BF     		.section	.text.B3M_PositionMin_Write,"ax",%progbits
 1930              		.align	2
 1931              		.global	B3M_PositionMin_Write
 1932              		.thumb
 1933              		.thumb_func
 1935              	B3M_PositionMin_Write:
 1936              	.LFB148:
 369:Src/B3M.c     **** 
 370:Src/B3M.c     **** uint8_t B3M_PositionMin_Write(UART_HandleTypeDef huart, uint8_t SERVO_ID, uint16_t NEW_POSITION_MIN
 371:Src/B3M.c     **** {
 1937              		.loc 1 371 0
 1938              		.cfi_startproc
 1939              		@ args = 72, pretend = 16, frame = 0
 1940              		@ frame_needed = 0, uses_anonymous_args = 0
ARM GAS  /tmp/cckyA7fG.s 			page 41


 1941              	.LVL139:
 1942 0000 84B0     		sub	sp, sp, #16
 1943              	.LCFI144:
 1944              		.cfi_def_cfa_offset 16
 1945 0002 30B5     		push	{r4, r5, lr}
 1946              	.LCFI145:
 1947              		.cfi_def_cfa_offset 28
 1948              		.cfi_offset 4, -28
 1949              		.cfi_offset 5, -24
 1950              		.cfi_offset 14, -20
 1951 0004 91B0     		sub	sp, sp, #68
 1952              	.LCFI146:
 1953              		.cfi_def_cfa_offset 96
 1954 0006 14AC     		add	r4, sp, #80
 1955 0008 84E80F00 		stmia	r4, {r0, r1, r2, r3}
 372:Src/B3M.c     **** 	B3M_Write_2B(huart, SERVO_ID, NEW_POSITION_MIN, SYSTEM_POSITION_MIN);
 1956              		.loc 1 372 0
 1957 000c 0523     		movs	r3, #5
 1958 000e 0E93     		str	r3, [sp, #56]
 1959 0010 BDF89430 		ldrh	r3, [sp, #148]
 1960 0014 0D93     		str	r3, [sp, #52]
 1961 0016 9DF89030 		ldrb	r3, [sp, #144]	@ zero_extendqisi2
 1962 001a 0C93     		str	r3, [sp, #48]
 1963 001c 6C46     		mov	r4, sp
 1964 001e 18AD     		add	r5, sp, #96
 1965 0020 0FCD     		ldmia	r5!, {r0, r1, r2, r3}
 1966 0022 0FC4     		stmia	r4!, {r0, r1, r2, r3}
 1967 0024 0FCD     		ldmia	r5!, {r0, r1, r2, r3}
 1968 0026 0FC4     		stmia	r4!, {r0, r1, r2, r3}
 1969 0028 95E80F00 		ldmia	r5, {r0, r1, r2, r3}
 1970 002c 84E80F00 		stmia	r4, {r0, r1, r2, r3}
 1971 0030 14AB     		add	r3, sp, #80
 1972 0032 0FCB     		ldmia	r3, {r0, r1, r2, r3}
 1973 0034 FFF7FEFF 		bl	B3M_Write_2B
 1974              	.LVL140:
 373:Src/B3M.c     **** 	return 0;
 374:Src/B3M.c     **** }
 1975              		.loc 1 374 0
 1976 0038 0020     		movs	r0, #0
 1977 003a 11B0     		add	sp, sp, #68
 1978              	.LCFI147:
 1979              		.cfi_def_cfa_offset 28
 1980              		@ sp needed
 1981 003c BDE83040 		pop	{r4, r5, lr}
 1982              	.LCFI148:
 1983              		.cfi_restore 14
 1984              		.cfi_restore 5
 1985              		.cfi_restore 4
 1986              		.cfi_def_cfa_offset 16
 1987 0040 04B0     		add	sp, sp, #16
 1988              	.LCFI149:
 1989              		.cfi_def_cfa_offset 0
 1990 0042 7047     		bx	lr
 1991              		.cfi_endproc
 1992              	.LFE148:
 1994              		.section	.text.B3M_PositionMax_Read,"ax",%progbits
 1995              		.align	2
ARM GAS  /tmp/cckyA7fG.s 			page 42


 1996              		.global	B3M_PositionMax_Read
 1997              		.thumb
 1998              		.thumb_func
 2000              	B3M_PositionMax_Read:
 2001              	.LFB149:
 375:Src/B3M.c     **** 
 376:Src/B3M.c     **** uint8_t B3M_PositionMax_Read(UART_HandleTypeDef huart, uint8_t SERVO_ID)
 377:Src/B3M.c     **** {
 2002              		.loc 1 377 0
 2003              		.cfi_startproc
 2004              		@ args = 68, pretend = 16, frame = 0
 2005              		@ frame_needed = 0, uses_anonymous_args = 0
 2006              	.LVL141:
 2007 0000 84B0     		sub	sp, sp, #16
 2008              	.LCFI150:
 2009              		.cfi_def_cfa_offset 16
 2010 0002 30B5     		push	{r4, r5, lr}
 2011              	.LCFI151:
 2012              		.cfi_def_cfa_offset 28
 2013              		.cfi_offset 4, -28
 2014              		.cfi_offset 5, -24
 2015              		.cfi_offset 14, -20
 2016 0004 91B0     		sub	sp, sp, #68
 2017              	.LCFI152:
 2018              		.cfi_def_cfa_offset 96
 2019 0006 14AC     		add	r4, sp, #80
 2020 0008 84E80F00 		stmia	r4, {r0, r1, r2, r3}
 378:Src/B3M.c     **** 	B3M_Read(huart, SERVO_ID, SYSTEM_POSITION_MAX, READ_LENGTH_2B);
 2021              		.loc 1 378 0
 2022 000c 0223     		movs	r3, #2
 2023 000e 0E93     		str	r3, [sp, #56]
 2024 0010 0723     		movs	r3, #7
 2025 0012 0D93     		str	r3, [sp, #52]
 2026 0014 9DF89030 		ldrb	r3, [sp, #144]	@ zero_extendqisi2
 2027 0018 0C93     		str	r3, [sp, #48]
 2028 001a 6C46     		mov	r4, sp
 2029 001c 18AD     		add	r5, sp, #96
 2030 001e 0FCD     		ldmia	r5!, {r0, r1, r2, r3}
 2031 0020 0FC4     		stmia	r4!, {r0, r1, r2, r3}
 2032 0022 0FCD     		ldmia	r5!, {r0, r1, r2, r3}
 2033 0024 0FC4     		stmia	r4!, {r0, r1, r2, r3}
 2034 0026 95E80F00 		ldmia	r5, {r0, r1, r2, r3}
 2035 002a 84E80F00 		stmia	r4, {r0, r1, r2, r3}
 2036 002e 14AB     		add	r3, sp, #80
 2037 0030 0FCB     		ldmia	r3, {r0, r1, r2, r3}
 2038 0032 FFF7FEFF 		bl	B3M_Read
 2039              	.LVL142:
 379:Src/B3M.c     **** 	return 0;
 380:Src/B3M.c     **** }
 2040              		.loc 1 380 0
 2041 0036 0020     		movs	r0, #0
 2042 0038 11B0     		add	sp, sp, #68
 2043              	.LCFI153:
 2044              		.cfi_def_cfa_offset 28
 2045              		@ sp needed
 2046 003a BDE83040 		pop	{r4, r5, lr}
 2047              	.LCFI154:
ARM GAS  /tmp/cckyA7fG.s 			page 43


 2048              		.cfi_restore 14
 2049              		.cfi_restore 5
 2050              		.cfi_restore 4
 2051              		.cfi_def_cfa_offset 16
 2052 003e 04B0     		add	sp, sp, #16
 2053              	.LCFI155:
 2054              		.cfi_def_cfa_offset 0
 2055 0040 7047     		bx	lr
 2056              		.cfi_endproc
 2057              	.LFE149:
 2059 0042 00BF     		.section	.text.B3M_PositionMax_Write,"ax",%progbits
 2060              		.align	2
 2061              		.global	B3M_PositionMax_Write
 2062              		.thumb
 2063              		.thumb_func
 2065              	B3M_PositionMax_Write:
 2066              	.LFB150:
 381:Src/B3M.c     **** 
 382:Src/B3M.c     **** uint8_t B3M_PositionMax_Write(UART_HandleTypeDef huart, uint8_t SERVO_ID, uint16_t NEW_POSITION_MAX
 383:Src/B3M.c     **** {
 2067              		.loc 1 383 0
 2068              		.cfi_startproc
 2069              		@ args = 72, pretend = 16, frame = 0
 2070              		@ frame_needed = 0, uses_anonymous_args = 0
 2071              	.LVL143:
 2072 0000 84B0     		sub	sp, sp, #16
 2073              	.LCFI156:
 2074              		.cfi_def_cfa_offset 16
 2075 0002 30B5     		push	{r4, r5, lr}
 2076              	.LCFI157:
 2077              		.cfi_def_cfa_offset 28
 2078              		.cfi_offset 4, -28
 2079              		.cfi_offset 5, -24
 2080              		.cfi_offset 14, -20
 2081 0004 91B0     		sub	sp, sp, #68
 2082              	.LCFI158:
 2083              		.cfi_def_cfa_offset 96
 2084 0006 14AC     		add	r4, sp, #80
 2085 0008 84E80F00 		stmia	r4, {r0, r1, r2, r3}
 384:Src/B3M.c     **** 	B3M_Write_2B(huart, SERVO_ID, NEW_POSITION_MAX, SYSTEM_POSITION_MAX);
 2086              		.loc 1 384 0
 2087 000c 0723     		movs	r3, #7
 2088 000e 0E93     		str	r3, [sp, #56]
 2089 0010 BDF89430 		ldrh	r3, [sp, #148]
 2090 0014 0D93     		str	r3, [sp, #52]
 2091 0016 9DF89030 		ldrb	r3, [sp, #144]	@ zero_extendqisi2
 2092 001a 0C93     		str	r3, [sp, #48]
 2093 001c 6C46     		mov	r4, sp
 2094 001e 18AD     		add	r5, sp, #96
 2095 0020 0FCD     		ldmia	r5!, {r0, r1, r2, r3}
 2096 0022 0FC4     		stmia	r4!, {r0, r1, r2, r3}
 2097 0024 0FCD     		ldmia	r5!, {r0, r1, r2, r3}
 2098 0026 0FC4     		stmia	r4!, {r0, r1, r2, r3}
 2099 0028 95E80F00 		ldmia	r5, {r0, r1, r2, r3}
 2100 002c 84E80F00 		stmia	r4, {r0, r1, r2, r3}
 2101 0030 14AB     		add	r3, sp, #80
 2102 0032 0FCB     		ldmia	r3, {r0, r1, r2, r3}
ARM GAS  /tmp/cckyA7fG.s 			page 44


 2103 0034 FFF7FEFF 		bl	B3M_Write_2B
 2104              	.LVL144:
 385:Src/B3M.c     **** 	return 0;
 386:Src/B3M.c     **** }
 2105              		.loc 1 386 0
 2106 0038 0020     		movs	r0, #0
 2107 003a 11B0     		add	sp, sp, #68
 2108              	.LCFI159:
 2109              		.cfi_def_cfa_offset 28
 2110              		@ sp needed
 2111 003c BDE83040 		pop	{r4, r5, lr}
 2112              	.LCFI160:
 2113              		.cfi_restore 14
 2114              		.cfi_restore 5
 2115              		.cfi_restore 4
 2116              		.cfi_def_cfa_offset 16
 2117 0040 04B0     		add	sp, sp, #16
 2118              	.LCFI161:
 2119              		.cfi_def_cfa_offset 0
 2120 0042 7047     		bx	lr
 2121              		.cfi_endproc
 2122              	.LFE150:
 2124              		.section	.text.B3M_PositionCenter_Read,"ax",%progbits
 2125              		.align	2
 2126              		.global	B3M_PositionCenter_Read
 2127              		.thumb
 2128              		.thumb_func
 2130              	B3M_PositionCenter_Read:
 2131              	.LFB151:
 387:Src/B3M.c     **** 
 388:Src/B3M.c     **** uint8_t B3M_PositionCenter_Read(UART_HandleTypeDef huart, uint8_t SERVO_ID)
 389:Src/B3M.c     **** {
 2132              		.loc 1 389 0
 2133              		.cfi_startproc
 2134              		@ args = 68, pretend = 16, frame = 0
 2135              		@ frame_needed = 0, uses_anonymous_args = 0
 2136              	.LVL145:
 2137 0000 84B0     		sub	sp, sp, #16
 2138              	.LCFI162:
 2139              		.cfi_def_cfa_offset 16
 2140 0002 30B5     		push	{r4, r5, lr}
 2141              	.LCFI163:
 2142              		.cfi_def_cfa_offset 28
 2143              		.cfi_offset 4, -28
 2144              		.cfi_offset 5, -24
 2145              		.cfi_offset 14, -20
 2146 0004 91B0     		sub	sp, sp, #68
 2147              	.LCFI164:
 2148              		.cfi_def_cfa_offset 96
 2149 0006 14AC     		add	r4, sp, #80
 2150 0008 84E80F00 		stmia	r4, {r0, r1, r2, r3}
 390:Src/B3M.c     **** 	B3M_Read(huart, SERVO_ID, SYSTEM_POSITION_CENTER, READ_LENGTH_2B);
 2151              		.loc 1 390 0
 2152 000c 0223     		movs	r3, #2
 2153 000e 0E93     		str	r3, [sp, #56]
 2154 0010 0923     		movs	r3, #9
 2155 0012 0D93     		str	r3, [sp, #52]
ARM GAS  /tmp/cckyA7fG.s 			page 45


 2156 0014 9DF89030 		ldrb	r3, [sp, #144]	@ zero_extendqisi2
 2157 0018 0C93     		str	r3, [sp, #48]
 2158 001a 6C46     		mov	r4, sp
 2159 001c 18AD     		add	r5, sp, #96
 2160 001e 0FCD     		ldmia	r5!, {r0, r1, r2, r3}
 2161 0020 0FC4     		stmia	r4!, {r0, r1, r2, r3}
 2162 0022 0FCD     		ldmia	r5!, {r0, r1, r2, r3}
 2163 0024 0FC4     		stmia	r4!, {r0, r1, r2, r3}
 2164 0026 95E80F00 		ldmia	r5, {r0, r1, r2, r3}
 2165 002a 84E80F00 		stmia	r4, {r0, r1, r2, r3}
 2166 002e 14AB     		add	r3, sp, #80
 2167 0030 0FCB     		ldmia	r3, {r0, r1, r2, r3}
 2168 0032 FFF7FEFF 		bl	B3M_Read
 2169              	.LVL146:
 391:Src/B3M.c     **** 	return 0;
 392:Src/B3M.c     **** }
 2170              		.loc 1 392 0
 2171 0036 0020     		movs	r0, #0
 2172 0038 11B0     		add	sp, sp, #68
 2173              	.LCFI165:
 2174              		.cfi_def_cfa_offset 28
 2175              		@ sp needed
 2176 003a BDE83040 		pop	{r4, r5, lr}
 2177              	.LCFI166:
 2178              		.cfi_restore 14
 2179              		.cfi_restore 5
 2180              		.cfi_restore 4
 2181              		.cfi_def_cfa_offset 16
 2182 003e 04B0     		add	sp, sp, #16
 2183              	.LCFI167:
 2184              		.cfi_def_cfa_offset 0
 2185 0040 7047     		bx	lr
 2186              		.cfi_endproc
 2187              	.LFE151:
 2189 0042 00BF     		.section	.text.B3M_PositionCenter_Write,"ax",%progbits
 2190              		.align	2
 2191              		.global	B3M_PositionCenter_Write
 2192              		.thumb
 2193              		.thumb_func
 2195              	B3M_PositionCenter_Write:
 2196              	.LFB152:
 393:Src/B3M.c     **** 
 394:Src/B3M.c     **** uint8_t B3M_PositionCenter_Write(UART_HandleTypeDef huart, uint8_t SERVO_ID, uint16_t NEW_POSITION_
 395:Src/B3M.c     **** {
 2197              		.loc 1 395 0
 2198              		.cfi_startproc
 2199              		@ args = 72, pretend = 16, frame = 0
 2200              		@ frame_needed = 0, uses_anonymous_args = 0
 2201              	.LVL147:
 2202 0000 84B0     		sub	sp, sp, #16
 2203              	.LCFI168:
 2204              		.cfi_def_cfa_offset 16
 2205 0002 30B5     		push	{r4, r5, lr}
 2206              	.LCFI169:
 2207              		.cfi_def_cfa_offset 28
 2208              		.cfi_offset 4, -28
 2209              		.cfi_offset 5, -24
ARM GAS  /tmp/cckyA7fG.s 			page 46


 2210              		.cfi_offset 14, -20
 2211 0004 91B0     		sub	sp, sp, #68
 2212              	.LCFI170:
 2213              		.cfi_def_cfa_offset 96
 2214 0006 14AC     		add	r4, sp, #80
 2215 0008 84E80F00 		stmia	r4, {r0, r1, r2, r3}
 396:Src/B3M.c     **** 	B3M_Write_2B(huart, SERVO_ID, NEW_POSITION_CENTER, SYSTEM_POSITION_CENTER);
 2216              		.loc 1 396 0
 2217 000c 0923     		movs	r3, #9
 2218 000e 0E93     		str	r3, [sp, #56]
 2219 0010 BDF89430 		ldrh	r3, [sp, #148]
 2220 0014 0D93     		str	r3, [sp, #52]
 2221 0016 9DF89030 		ldrb	r3, [sp, #144]	@ zero_extendqisi2
 2222 001a 0C93     		str	r3, [sp, #48]
 2223 001c 6C46     		mov	r4, sp
 2224 001e 18AD     		add	r5, sp, #96
 2225 0020 0FCD     		ldmia	r5!, {r0, r1, r2, r3}
 2226 0022 0FC4     		stmia	r4!, {r0, r1, r2, r3}
 2227 0024 0FCD     		ldmia	r5!, {r0, r1, r2, r3}
 2228 0026 0FC4     		stmia	r4!, {r0, r1, r2, r3}
 2229 0028 95E80F00 		ldmia	r5, {r0, r1, r2, r3}
 2230 002c 84E80F00 		stmia	r4, {r0, r1, r2, r3}
 2231 0030 14AB     		add	r3, sp, #80
 2232 0032 0FCB     		ldmia	r3, {r0, r1, r2, r3}
 2233 0034 FFF7FEFF 		bl	B3M_Write_2B
 2234              	.LVL148:
 397:Src/B3M.c     **** 	return 0;
 398:Src/B3M.c     **** }
 2235              		.loc 1 398 0
 2236 0038 0020     		movs	r0, #0
 2237 003a 11B0     		add	sp, sp, #68
 2238              	.LCFI171:
 2239              		.cfi_def_cfa_offset 28
 2240              		@ sp needed
 2241 003c BDE83040 		pop	{r4, r5, lr}
 2242              	.LCFI172:
 2243              		.cfi_restore 14
 2244              		.cfi_restore 5
 2245              		.cfi_restore 4
 2246              		.cfi_def_cfa_offset 16
 2247 0040 04B0     		add	sp, sp, #16
 2248              	.LCFI173:
 2249              		.cfi_def_cfa_offset 0
 2250 0042 7047     		bx	lr
 2251              		.cfi_endproc
 2252              	.LFE152:
 2254              		.section	.text.B3M_MCUTempLimit_Read,"ax",%progbits
 2255              		.align	2
 2256              		.global	B3M_MCUTempLimit_Read
 2257              		.thumb
 2258              		.thumb_func
 2260              	B3M_MCUTempLimit_Read:
 2261              	.LFB153:
 399:Src/B3M.c     **** 
 400:Src/B3M.c     **** uint8_t B3M_MCUTempLimit_Read(UART_HandleTypeDef huart, uint8_t SERVO_ID)
 401:Src/B3M.c     **** {
 2262              		.loc 1 401 0
ARM GAS  /tmp/cckyA7fG.s 			page 47


 2263              		.cfi_startproc
 2264              		@ args = 68, pretend = 16, frame = 0
 2265              		@ frame_needed = 0, uses_anonymous_args = 0
 2266              	.LVL149:
 2267 0000 84B0     		sub	sp, sp, #16
 2268              	.LCFI174:
 2269              		.cfi_def_cfa_offset 16
 2270 0002 30B5     		push	{r4, r5, lr}
 2271              	.LCFI175:
 2272              		.cfi_def_cfa_offset 28
 2273              		.cfi_offset 4, -28
 2274              		.cfi_offset 5, -24
 2275              		.cfi_offset 14, -20
 2276 0004 91B0     		sub	sp, sp, #68
 2277              	.LCFI176:
 2278              		.cfi_def_cfa_offset 96
 2279 0006 14AC     		add	r4, sp, #80
 2280 0008 84E80F00 		stmia	r4, {r0, r1, r2, r3}
 402:Src/B3M.c     **** 	B3M_Read(huart, SERVO_ID, SYSTEM_MCU_TEMP_LIMIT, READ_LENGTH_2B);
 2281              		.loc 1 402 0
 2282 000c 0223     		movs	r3, #2
 2283 000e 0E93     		str	r3, [sp, #56]
 2284 0010 0B23     		movs	r3, #11
 2285 0012 0D93     		str	r3, [sp, #52]
 2286 0014 9DF89030 		ldrb	r3, [sp, #144]	@ zero_extendqisi2
 2287 0018 0C93     		str	r3, [sp, #48]
 2288 001a 6C46     		mov	r4, sp
 2289 001c 18AD     		add	r5, sp, #96
 2290 001e 0FCD     		ldmia	r5!, {r0, r1, r2, r3}
 2291 0020 0FC4     		stmia	r4!, {r0, r1, r2, r3}
 2292 0022 0FCD     		ldmia	r5!, {r0, r1, r2, r3}
 2293 0024 0FC4     		stmia	r4!, {r0, r1, r2, r3}
 2294 0026 95E80F00 		ldmia	r5, {r0, r1, r2, r3}
 2295 002a 84E80F00 		stmia	r4, {r0, r1, r2, r3}
 2296 002e 14AB     		add	r3, sp, #80
 2297 0030 0FCB     		ldmia	r3, {r0, r1, r2, r3}
 2298 0032 FFF7FEFF 		bl	B3M_Read
 2299              	.LVL150:
 403:Src/B3M.c     **** 	return 0;
 404:Src/B3M.c     **** }
 2300              		.loc 1 404 0
 2301 0036 0020     		movs	r0, #0
 2302 0038 11B0     		add	sp, sp, #68
 2303              	.LCFI177:
 2304              		.cfi_def_cfa_offset 28
 2305              		@ sp needed
 2306 003a BDE83040 		pop	{r4, r5, lr}
 2307              	.LCFI178:
 2308              		.cfi_restore 14
 2309              		.cfi_restore 5
 2310              		.cfi_restore 4
 2311              		.cfi_def_cfa_offset 16
 2312 003e 04B0     		add	sp, sp, #16
 2313              	.LCFI179:
 2314              		.cfi_def_cfa_offset 0
 2315 0040 7047     		bx	lr
 2316              		.cfi_endproc
ARM GAS  /tmp/cckyA7fG.s 			page 48


 2317              	.LFE153:
 2319 0042 00BF     		.section	.text.B3M_MCUTempLimit_Write,"ax",%progbits
 2320              		.align	2
 2321              		.global	B3M_MCUTempLimit_Write
 2322              		.thumb
 2323              		.thumb_func
 2325              	B3M_MCUTempLimit_Write:
 2326              	.LFB154:
 405:Src/B3M.c     **** 
 406:Src/B3M.c     **** uint8_t B3M_MCUTempLimit_Write(UART_HandleTypeDef huart, uint8_t SERVO_ID, uint16_t NEW_MCU_TEMP_LI
 407:Src/B3M.c     **** {
 2327              		.loc 1 407 0
 2328              		.cfi_startproc
 2329              		@ args = 72, pretend = 16, frame = 0
 2330              		@ frame_needed = 0, uses_anonymous_args = 0
 2331              	.LVL151:
 2332 0000 84B0     		sub	sp, sp, #16
 2333              	.LCFI180:
 2334              		.cfi_def_cfa_offset 16
 2335 0002 30B5     		push	{r4, r5, lr}
 2336              	.LCFI181:
 2337              		.cfi_def_cfa_offset 28
 2338              		.cfi_offset 4, -28
 2339              		.cfi_offset 5, -24
 2340              		.cfi_offset 14, -20
 2341 0004 91B0     		sub	sp, sp, #68
 2342              	.LCFI182:
 2343              		.cfi_def_cfa_offset 96
 2344 0006 14AC     		add	r4, sp, #80
 2345 0008 84E80F00 		stmia	r4, {r0, r1, r2, r3}
 408:Src/B3M.c     **** 	B3M_Write_2B(huart, SERVO_ID, NEW_MCU_TEMP_LIMIT, SYSTEM_MCU_TEMP_LIMIT);
 2346              		.loc 1 408 0
 2347 000c 0B23     		movs	r3, #11
 2348 000e 0E93     		str	r3, [sp, #56]
 2349 0010 BDF89430 		ldrh	r3, [sp, #148]
 2350 0014 0D93     		str	r3, [sp, #52]
 2351 0016 9DF89030 		ldrb	r3, [sp, #144]	@ zero_extendqisi2
 2352 001a 0C93     		str	r3, [sp, #48]
 2353 001c 6C46     		mov	r4, sp
 2354 001e 18AD     		add	r5, sp, #96
 2355 0020 0FCD     		ldmia	r5!, {r0, r1, r2, r3}
 2356 0022 0FC4     		stmia	r4!, {r0, r1, r2, r3}
 2357 0024 0FCD     		ldmia	r5!, {r0, r1, r2, r3}
 2358 0026 0FC4     		stmia	r4!, {r0, r1, r2, r3}
 2359 0028 95E80F00 		ldmia	r5, {r0, r1, r2, r3}
 2360 002c 84E80F00 		stmia	r4, {r0, r1, r2, r3}
 2361 0030 14AB     		add	r3, sp, #80
 2362 0032 0FCB     		ldmia	r3, {r0, r1, r2, r3}
 2363 0034 FFF7FEFF 		bl	B3M_Write_2B
 2364              	.LVL152:
 409:Src/B3M.c     **** 	return 0;
 410:Src/B3M.c     **** }
 2365              		.loc 1 410 0
 2366 0038 0020     		movs	r0, #0
 2367 003a 11B0     		add	sp, sp, #68
 2368              	.LCFI183:
 2369              		.cfi_def_cfa_offset 28
ARM GAS  /tmp/cckyA7fG.s 			page 49


 2370              		@ sp needed
 2371 003c BDE83040 		pop	{r4, r5, lr}
 2372              	.LCFI184:
 2373              		.cfi_restore 14
 2374              		.cfi_restore 5
 2375              		.cfi_restore 4
 2376              		.cfi_def_cfa_offset 16
 2377 0040 04B0     		add	sp, sp, #16
 2378              	.LCFI185:
 2379              		.cfi_def_cfa_offset 0
 2380 0042 7047     		bx	lr
 2381              		.cfi_endproc
 2382              	.LFE154:
 2384              		.section	.text.B3M_MCUTempLimitPR_Read,"ax",%progbits
 2385              		.align	2
 2386              		.global	B3M_MCUTempLimitPR_Read
 2387              		.thumb
 2388              		.thumb_func
 2390              	B3M_MCUTempLimitPR_Read:
 2391              	.LFB155:
 411:Src/B3M.c     **** 
 412:Src/B3M.c     **** uint8_t B3M_MCUTempLimitPR_Read(UART_HandleTypeDef huart, uint8_t SERVO_ID)
 413:Src/B3M.c     **** {
 2392              		.loc 1 413 0
 2393              		.cfi_startproc
 2394              		@ args = 68, pretend = 16, frame = 0
 2395              		@ frame_needed = 0, uses_anonymous_args = 0
 2396              	.LVL153:
 2397 0000 84B0     		sub	sp, sp, #16
 2398              	.LCFI186:
 2399              		.cfi_def_cfa_offset 16
 2400 0002 30B5     		push	{r4, r5, lr}
 2401              	.LCFI187:
 2402              		.cfi_def_cfa_offset 28
 2403              		.cfi_offset 4, -28
 2404              		.cfi_offset 5, -24
 2405              		.cfi_offset 14, -20
 2406 0004 91B0     		sub	sp, sp, #68
 2407              	.LCFI188:
 2408              		.cfi_def_cfa_offset 96
 2409 0006 14AC     		add	r4, sp, #80
 2410 0008 84E80F00 		stmia	r4, {r0, r1, r2, r3}
 414:Src/B3M.c     **** 	B3M_Read(huart, SERVO_ID, SYSTEM_MCU_TEMP_LIMIT_PR, READ_LENGTH_1B);
 2411              		.loc 1 414 0
 2412 000c 0123     		movs	r3, #1
 2413 000e 0E93     		str	r3, [sp, #56]
 2414 0010 0D23     		movs	r3, #13
 2415 0012 0D93     		str	r3, [sp, #52]
 2416 0014 9DF89030 		ldrb	r3, [sp, #144]	@ zero_extendqisi2
 2417 0018 0C93     		str	r3, [sp, #48]
 2418 001a 6C46     		mov	r4, sp
 2419 001c 18AD     		add	r5, sp, #96
 2420 001e 0FCD     		ldmia	r5!, {r0, r1, r2, r3}
 2421 0020 0FC4     		stmia	r4!, {r0, r1, r2, r3}
 2422 0022 0FCD     		ldmia	r5!, {r0, r1, r2, r3}
 2423 0024 0FC4     		stmia	r4!, {r0, r1, r2, r3}
 2424 0026 95E80F00 		ldmia	r5, {r0, r1, r2, r3}
ARM GAS  /tmp/cckyA7fG.s 			page 50


 2425 002a 84E80F00 		stmia	r4, {r0, r1, r2, r3}
 2426 002e 14AB     		add	r3, sp, #80
 2427 0030 0FCB     		ldmia	r3, {r0, r1, r2, r3}
 2428 0032 FFF7FEFF 		bl	B3M_Read
 2429              	.LVL154:
 415:Src/B3M.c     **** 	return 0;
 416:Src/B3M.c     **** }
 2430              		.loc 1 416 0
 2431 0036 0020     		movs	r0, #0
 2432 0038 11B0     		add	sp, sp, #68
 2433              	.LCFI189:
 2434              		.cfi_def_cfa_offset 28
 2435              		@ sp needed
 2436 003a BDE83040 		pop	{r4, r5, lr}
 2437              	.LCFI190:
 2438              		.cfi_restore 14
 2439              		.cfi_restore 5
 2440              		.cfi_restore 4
 2441              		.cfi_def_cfa_offset 16
 2442 003e 04B0     		add	sp, sp, #16
 2443              	.LCFI191:
 2444              		.cfi_def_cfa_offset 0
 2445 0040 7047     		bx	lr
 2446              		.cfi_endproc
 2447              	.LFE155:
 2449 0042 00BF     		.section	.text.B3M_MCUTempLimitPR_Write,"ax",%progbits
 2450              		.align	2
 2451              		.global	B3M_MCUTempLimitPR_Write
 2452              		.thumb
 2453              		.thumb_func
 2455              	B3M_MCUTempLimitPR_Write:
 2456              	.LFB156:
 417:Src/B3M.c     **** 
 418:Src/B3M.c     **** uint8_t B3M_MCUTempLimitPR_Write(UART_HandleTypeDef huart, uint8_t SERVO_ID, uint8_t NEW_MCU_TEMP_L
 419:Src/B3M.c     **** {
 2457              		.loc 1 419 0
 2458              		.cfi_startproc
 2459              		@ args = 72, pretend = 16, frame = 0
 2460              		@ frame_needed = 0, uses_anonymous_args = 0
 2461              	.LVL155:
 2462 0000 84B0     		sub	sp, sp, #16
 2463              	.LCFI192:
 2464              		.cfi_def_cfa_offset 16
 2465 0002 30B5     		push	{r4, r5, lr}
 2466              	.LCFI193:
 2467              		.cfi_def_cfa_offset 28
 2468              		.cfi_offset 4, -28
 2469              		.cfi_offset 5, -24
 2470              		.cfi_offset 14, -20
 2471 0004 91B0     		sub	sp, sp, #68
 2472              	.LCFI194:
 2473              		.cfi_def_cfa_offset 96
 2474 0006 14AC     		add	r4, sp, #80
 2475 0008 84E80F00 		stmia	r4, {r0, r1, r2, r3}
 420:Src/B3M.c     **** 	B3M_Write_1B(huart, SERVO_ID, NEW_MCU_TEMP_LIMIT_PR, SYSTEM_MCU_TEMP_LIMIT_PR);
 2476              		.loc 1 420 0
 2477 000c 0D23     		movs	r3, #13
ARM GAS  /tmp/cckyA7fG.s 			page 51


 2478 000e 0E93     		str	r3, [sp, #56]
 2479 0010 9DF89430 		ldrb	r3, [sp, #148]	@ zero_extendqisi2
 2480 0014 0D93     		str	r3, [sp, #52]
 2481 0016 9DF89030 		ldrb	r3, [sp, #144]	@ zero_extendqisi2
 2482 001a 0C93     		str	r3, [sp, #48]
 2483 001c 6C46     		mov	r4, sp
 2484 001e 18AD     		add	r5, sp, #96
 2485 0020 0FCD     		ldmia	r5!, {r0, r1, r2, r3}
 2486 0022 0FC4     		stmia	r4!, {r0, r1, r2, r3}
 2487 0024 0FCD     		ldmia	r5!, {r0, r1, r2, r3}
 2488 0026 0FC4     		stmia	r4!, {r0, r1, r2, r3}
 2489 0028 95E80F00 		ldmia	r5, {r0, r1, r2, r3}
 2490 002c 84E80F00 		stmia	r4, {r0, r1, r2, r3}
 2491 0030 14AB     		add	r3, sp, #80
 2492 0032 0FCB     		ldmia	r3, {r0, r1, r2, r3}
 2493 0034 FFF7FEFF 		bl	B3M_Write_1B
 2494              	.LVL156:
 421:Src/B3M.c     **** 	return 0;
 422:Src/B3M.c     **** }
 2495              		.loc 1 422 0
 2496 0038 0020     		movs	r0, #0
 2497 003a 11B0     		add	sp, sp, #68
 2498              	.LCFI195:
 2499              		.cfi_def_cfa_offset 28
 2500              		@ sp needed
 2501 003c BDE83040 		pop	{r4, r5, lr}
 2502              	.LCFI196:
 2503              		.cfi_restore 14
 2504              		.cfi_restore 5
 2505              		.cfi_restore 4
 2506              		.cfi_def_cfa_offset 16
 2507 0040 04B0     		add	sp, sp, #16
 2508              	.LCFI197:
 2509              		.cfi_def_cfa_offset 0
 2510 0042 7047     		bx	lr
 2511              		.cfi_endproc
 2512              	.LFE156:
 2514              		.section	.text.B3M_MotorTempLimit_Read,"ax",%progbits
 2515              		.align	2
 2516              		.global	B3M_MotorTempLimit_Read
 2517              		.thumb
 2518              		.thumb_func
 2520              	B3M_MotorTempLimit_Read:
 2521              	.LFB157:
 423:Src/B3M.c     **** 
 424:Src/B3M.c     **** uint8_t B3M_MotorTempLimit_Read(UART_HandleTypeDef huart, uint8_t SERVO_ID)
 425:Src/B3M.c     **** {
 2522              		.loc 1 425 0
 2523              		.cfi_startproc
 2524              		@ args = 68, pretend = 16, frame = 0
 2525              		@ frame_needed = 0, uses_anonymous_args = 0
 2526              	.LVL157:
 2527 0000 84B0     		sub	sp, sp, #16
 2528              	.LCFI198:
 2529              		.cfi_def_cfa_offset 16
 2530 0002 30B5     		push	{r4, r5, lr}
 2531              	.LCFI199:
ARM GAS  /tmp/cckyA7fG.s 			page 52


 2532              		.cfi_def_cfa_offset 28
 2533              		.cfi_offset 4, -28
 2534              		.cfi_offset 5, -24
 2535              		.cfi_offset 14, -20
 2536 0004 91B0     		sub	sp, sp, #68
 2537              	.LCFI200:
 2538              		.cfi_def_cfa_offset 96
 2539 0006 14AC     		add	r4, sp, #80
 2540 0008 84E80F00 		stmia	r4, {r0, r1, r2, r3}
 426:Src/B3M.c     **** 	B3M_Read(huart, SERVO_ID, SYSTEM_MOTOR_TEMP_LIMIT, READ_LENGTH_2B);
 2541              		.loc 1 426 0
 2542 000c 0223     		movs	r3, #2
 2543 000e 0E93     		str	r3, [sp, #56]
 2544 0010 0E23     		movs	r3, #14
 2545 0012 0D93     		str	r3, [sp, #52]
 2546 0014 9DF89030 		ldrb	r3, [sp, #144]	@ zero_extendqisi2
 2547 0018 0C93     		str	r3, [sp, #48]
 2548 001a 6C46     		mov	r4, sp
 2549 001c 18AD     		add	r5, sp, #96
 2550 001e 0FCD     		ldmia	r5!, {r0, r1, r2, r3}
 2551 0020 0FC4     		stmia	r4!, {r0, r1, r2, r3}
 2552 0022 0FCD     		ldmia	r5!, {r0, r1, r2, r3}
 2553 0024 0FC4     		stmia	r4!, {r0, r1, r2, r3}
 2554 0026 95E80F00 		ldmia	r5, {r0, r1, r2, r3}
 2555 002a 84E80F00 		stmia	r4, {r0, r1, r2, r3}
 2556 002e 14AB     		add	r3, sp, #80
 2557 0030 0FCB     		ldmia	r3, {r0, r1, r2, r3}
 2558 0032 FFF7FEFF 		bl	B3M_Read
 2559              	.LVL158:
 427:Src/B3M.c     **** 	return 0;
 428:Src/B3M.c     **** }
 2560              		.loc 1 428 0
 2561 0036 0020     		movs	r0, #0
 2562 0038 11B0     		add	sp, sp, #68
 2563              	.LCFI201:
 2564              		.cfi_def_cfa_offset 28
 2565              		@ sp needed
 2566 003a BDE83040 		pop	{r4, r5, lr}
 2567              	.LCFI202:
 2568              		.cfi_restore 14
 2569              		.cfi_restore 5
 2570              		.cfi_restore 4
 2571              		.cfi_def_cfa_offset 16
 2572 003e 04B0     		add	sp, sp, #16
 2573              	.LCFI203:
 2574              		.cfi_def_cfa_offset 0
 2575 0040 7047     		bx	lr
 2576              		.cfi_endproc
 2577              	.LFE157:
 2579 0042 00BF     		.section	.text.B3M_MotorTempLimit_Write,"ax",%progbits
 2580              		.align	2
 2581              		.global	B3M_MotorTempLimit_Write
 2582              		.thumb
 2583              		.thumb_func
 2585              	B3M_MotorTempLimit_Write:
 2586              	.LFB158:
 429:Src/B3M.c     **** 
ARM GAS  /tmp/cckyA7fG.s 			page 53


 430:Src/B3M.c     **** uint8_t B3M_MotorTempLimit_Write(UART_HandleTypeDef huart, uint8_t SERVO_ID, uint16_t NEW_MOTOR_TEM
 431:Src/B3M.c     **** {
 2587              		.loc 1 431 0
 2588              		.cfi_startproc
 2589              		@ args = 72, pretend = 16, frame = 0
 2590              		@ frame_needed = 0, uses_anonymous_args = 0
 2591              	.LVL159:
 2592 0000 84B0     		sub	sp, sp, #16
 2593              	.LCFI204:
 2594              		.cfi_def_cfa_offset 16
 2595 0002 30B5     		push	{r4, r5, lr}
 2596              	.LCFI205:
 2597              		.cfi_def_cfa_offset 28
 2598              		.cfi_offset 4, -28
 2599              		.cfi_offset 5, -24
 2600              		.cfi_offset 14, -20
 2601 0004 91B0     		sub	sp, sp, #68
 2602              	.LCFI206:
 2603              		.cfi_def_cfa_offset 96
 2604 0006 14AC     		add	r4, sp, #80
 2605 0008 84E80F00 		stmia	r4, {r0, r1, r2, r3}
 432:Src/B3M.c     **** 	B3M_Write_2B(huart, SERVO_ID, NEW_MOTOR_TEMP_LIMIT, SYSTEM_MOTOR_TEMP_LIMIT);
 2606              		.loc 1 432 0
 2607 000c 0E23     		movs	r3, #14
 2608 000e 0E93     		str	r3, [sp, #56]
 2609 0010 BDF89430 		ldrh	r3, [sp, #148]
 2610 0014 0D93     		str	r3, [sp, #52]
 2611 0016 9DF89030 		ldrb	r3, [sp, #144]	@ zero_extendqisi2
 2612 001a 0C93     		str	r3, [sp, #48]
 2613 001c 6C46     		mov	r4, sp
 2614 001e 18AD     		add	r5, sp, #96
 2615 0020 0FCD     		ldmia	r5!, {r0, r1, r2, r3}
 2616 0022 0FC4     		stmia	r4!, {r0, r1, r2, r3}
 2617 0024 0FCD     		ldmia	r5!, {r0, r1, r2, r3}
 2618 0026 0FC4     		stmia	r4!, {r0, r1, r2, r3}
 2619 0028 95E80F00 		ldmia	r5, {r0, r1, r2, r3}
 2620 002c 84E80F00 		stmia	r4, {r0, r1, r2, r3}
 2621 0030 14AB     		add	r3, sp, #80
 2622 0032 0FCB     		ldmia	r3, {r0, r1, r2, r3}
 2623 0034 FFF7FEFF 		bl	B3M_Write_2B
 2624              	.LVL160:
 433:Src/B3M.c     **** 	return 0;
 434:Src/B3M.c     **** }
 2625              		.loc 1 434 0
 2626 0038 0020     		movs	r0, #0
 2627 003a 11B0     		add	sp, sp, #68
 2628              	.LCFI207:
 2629              		.cfi_def_cfa_offset 28
 2630              		@ sp needed
 2631 003c BDE83040 		pop	{r4, r5, lr}
 2632              	.LCFI208:
 2633              		.cfi_restore 14
 2634              		.cfi_restore 5
 2635              		.cfi_restore 4
 2636              		.cfi_def_cfa_offset 16
 2637 0040 04B0     		add	sp, sp, #16
 2638              	.LCFI209:
ARM GAS  /tmp/cckyA7fG.s 			page 54


 2639              		.cfi_def_cfa_offset 0
 2640 0042 7047     		bx	lr
 2641              		.cfi_endproc
 2642              	.LFE158:
 2644              		.section	.text.B3M_MotorTempLimitPR_Read,"ax",%progbits
 2645              		.align	2
 2646              		.global	B3M_MotorTempLimitPR_Read
 2647              		.thumb
 2648              		.thumb_func
 2650              	B3M_MotorTempLimitPR_Read:
 2651              	.LFB159:
 435:Src/B3M.c     **** 
 436:Src/B3M.c     **** uint8_t B3M_MotorTempLimitPR_Read(UART_HandleTypeDef huart, uint8_t SERVO_ID)
 437:Src/B3M.c     **** {
 2652              		.loc 1 437 0
 2653              		.cfi_startproc
 2654              		@ args = 68, pretend = 16, frame = 0
 2655              		@ frame_needed = 0, uses_anonymous_args = 0
 2656              	.LVL161:
 2657 0000 84B0     		sub	sp, sp, #16
 2658              	.LCFI210:
 2659              		.cfi_def_cfa_offset 16
 2660 0002 30B5     		push	{r4, r5, lr}
 2661              	.LCFI211:
 2662              		.cfi_def_cfa_offset 28
 2663              		.cfi_offset 4, -28
 2664              		.cfi_offset 5, -24
 2665              		.cfi_offset 14, -20
 2666 0004 91B0     		sub	sp, sp, #68
 2667              	.LCFI212:
 2668              		.cfi_def_cfa_offset 96
 2669 0006 14AC     		add	r4, sp, #80
 2670 0008 84E80F00 		stmia	r4, {r0, r1, r2, r3}
 438:Src/B3M.c     **** 	B3M_Read(huart, SERVO_ID, SYSTEM_MOTOR_TEMP_LIMIT_PR, READ_LENGTH_1B);
 2671              		.loc 1 438 0
 2672 000c 0123     		movs	r3, #1
 2673 000e 0E93     		str	r3, [sp, #56]
 2674 0010 1023     		movs	r3, #16
 2675 0012 0D93     		str	r3, [sp, #52]
 2676 0014 9DF89030 		ldrb	r3, [sp, #144]	@ zero_extendqisi2
 2677 0018 0C93     		str	r3, [sp, #48]
 2678 001a 6C46     		mov	r4, sp
 2679 001c 18AD     		add	r5, sp, #96
 2680 001e 0FCD     		ldmia	r5!, {r0, r1, r2, r3}
 2681 0020 0FC4     		stmia	r4!, {r0, r1, r2, r3}
 2682 0022 0FCD     		ldmia	r5!, {r0, r1, r2, r3}
 2683 0024 0FC4     		stmia	r4!, {r0, r1, r2, r3}
 2684 0026 95E80F00 		ldmia	r5, {r0, r1, r2, r3}
 2685 002a 84E80F00 		stmia	r4, {r0, r1, r2, r3}
 2686 002e 14AB     		add	r3, sp, #80
 2687 0030 0FCB     		ldmia	r3, {r0, r1, r2, r3}
 2688 0032 FFF7FEFF 		bl	B3M_Read
 2689              	.LVL162:
 439:Src/B3M.c     **** 	return 0;
 440:Src/B3M.c     **** }
 2690              		.loc 1 440 0
 2691 0036 0020     		movs	r0, #0
ARM GAS  /tmp/cckyA7fG.s 			page 55


 2692 0038 11B0     		add	sp, sp, #68
 2693              	.LCFI213:
 2694              		.cfi_def_cfa_offset 28
 2695              		@ sp needed
 2696 003a BDE83040 		pop	{r4, r5, lr}
 2697              	.LCFI214:
 2698              		.cfi_restore 14
 2699              		.cfi_restore 5
 2700              		.cfi_restore 4
 2701              		.cfi_def_cfa_offset 16
 2702 003e 04B0     		add	sp, sp, #16
 2703              	.LCFI215:
 2704              		.cfi_def_cfa_offset 0
 2705 0040 7047     		bx	lr
 2706              		.cfi_endproc
 2707              	.LFE159:
 2709 0042 00BF     		.section	.text.B3M_MotorTempLimitPR_Write,"ax",%progbits
 2710              		.align	2
 2711              		.global	B3M_MotorTempLimitPR_Write
 2712              		.thumb
 2713              		.thumb_func
 2715              	B3M_MotorTempLimitPR_Write:
 2716              	.LFB160:
 441:Src/B3M.c     **** 
 442:Src/B3M.c     **** uint8_t B3M_MotorTempLimitPR_Write(UART_HandleTypeDef huart, uint8_t SERVO_ID, uint8_t NEW_MOTOR_TE
 443:Src/B3M.c     **** {
 2717              		.loc 1 443 0
 2718              		.cfi_startproc
 2719              		@ args = 72, pretend = 16, frame = 0
 2720              		@ frame_needed = 0, uses_anonymous_args = 0
 2721              	.LVL163:
 2722 0000 84B0     		sub	sp, sp, #16
 2723              	.LCFI216:
 2724              		.cfi_def_cfa_offset 16
 2725 0002 30B5     		push	{r4, r5, lr}
 2726              	.LCFI217:
 2727              		.cfi_def_cfa_offset 28
 2728              		.cfi_offset 4, -28
 2729              		.cfi_offset 5, -24
 2730              		.cfi_offset 14, -20
 2731 0004 91B0     		sub	sp, sp, #68
 2732              	.LCFI218:
 2733              		.cfi_def_cfa_offset 96
 2734 0006 14AC     		add	r4, sp, #80
 2735 0008 84E80F00 		stmia	r4, {r0, r1, r2, r3}
 444:Src/B3M.c     **** 	B3M_Write_1B(huart, SERVO_ID, NEW_MOTOR_TEMP_LIMIT_PR, SYSTEM_MOTOR_TEMP_LIMIT_PR);
 2736              		.loc 1 444 0
 2737 000c 1023     		movs	r3, #16
 2738 000e 0E93     		str	r3, [sp, #56]
 2739 0010 9DF89430 		ldrb	r3, [sp, #148]	@ zero_extendqisi2
 2740 0014 0D93     		str	r3, [sp, #52]
 2741 0016 9DF89030 		ldrb	r3, [sp, #144]	@ zero_extendqisi2
 2742 001a 0C93     		str	r3, [sp, #48]
 2743 001c 6C46     		mov	r4, sp
 2744 001e 18AD     		add	r5, sp, #96
 2745 0020 0FCD     		ldmia	r5!, {r0, r1, r2, r3}
 2746 0022 0FC4     		stmia	r4!, {r0, r1, r2, r3}
ARM GAS  /tmp/cckyA7fG.s 			page 56


 2747 0024 0FCD     		ldmia	r5!, {r0, r1, r2, r3}
 2748 0026 0FC4     		stmia	r4!, {r0, r1, r2, r3}
 2749 0028 95E80F00 		ldmia	r5, {r0, r1, r2, r3}
 2750 002c 84E80F00 		stmia	r4, {r0, r1, r2, r3}
 2751 0030 14AB     		add	r3, sp, #80
 2752 0032 0FCB     		ldmia	r3, {r0, r1, r2, r3}
 2753 0034 FFF7FEFF 		bl	B3M_Write_1B
 2754              	.LVL164:
 445:Src/B3M.c     **** 	return 0;
 446:Src/B3M.c     **** }
 2755              		.loc 1 446 0
 2756 0038 0020     		movs	r0, #0
 2757 003a 11B0     		add	sp, sp, #68
 2758              	.LCFI219:
 2759              		.cfi_def_cfa_offset 28
 2760              		@ sp needed
 2761 003c BDE83040 		pop	{r4, r5, lr}
 2762              	.LCFI220:
 2763              		.cfi_restore 14
 2764              		.cfi_restore 5
 2765              		.cfi_restore 4
 2766              		.cfi_def_cfa_offset 16
 2767 0040 04B0     		add	sp, sp, #16
 2768              	.LCFI221:
 2769              		.cfi_def_cfa_offset 0
 2770 0042 7047     		bx	lr
 2771              		.cfi_endproc
 2772              	.LFE160:
 2774              		.section	.text.B3M_CurrentLimit_Read,"ax",%progbits
 2775              		.align	2
 2776              		.global	B3M_CurrentLimit_Read
 2777              		.thumb
 2778              		.thumb_func
 2780              	B3M_CurrentLimit_Read:
 2781              	.LFB161:
 447:Src/B3M.c     **** 
 448:Src/B3M.c     **** uint8_t B3M_CurrentLimit_Read(UART_HandleTypeDef huart, uint8_t SERVO_ID)
 449:Src/B3M.c     **** {
 2782              		.loc 1 449 0
 2783              		.cfi_startproc
 2784              		@ args = 68, pretend = 16, frame = 0
 2785              		@ frame_needed = 0, uses_anonymous_args = 0
 2786              	.LVL165:
 2787 0000 84B0     		sub	sp, sp, #16
 2788              	.LCFI222:
 2789              		.cfi_def_cfa_offset 16
 2790 0002 30B5     		push	{r4, r5, lr}
 2791              	.LCFI223:
 2792              		.cfi_def_cfa_offset 28
 2793              		.cfi_offset 4, -28
 2794              		.cfi_offset 5, -24
 2795              		.cfi_offset 14, -20
 2796 0004 91B0     		sub	sp, sp, #68
 2797              	.LCFI224:
 2798              		.cfi_def_cfa_offset 96
 2799 0006 14AC     		add	r4, sp, #80
 2800 0008 84E80F00 		stmia	r4, {r0, r1, r2, r3}
ARM GAS  /tmp/cckyA7fG.s 			page 57


 450:Src/B3M.c     **** 	B3M_Read(huart, SERVO_ID, SYSTEM_CURRENT_LIMIT, READ_LENGTH_2B);
 2801              		.loc 1 450 0
 2802 000c 0223     		movs	r3, #2
 2803 000e 0E93     		str	r3, [sp, #56]
 2804 0010 1123     		movs	r3, #17
 2805 0012 0D93     		str	r3, [sp, #52]
 2806 0014 9DF89030 		ldrb	r3, [sp, #144]	@ zero_extendqisi2
 2807 0018 0C93     		str	r3, [sp, #48]
 2808 001a 6C46     		mov	r4, sp
 2809 001c 18AD     		add	r5, sp, #96
 2810 001e 0FCD     		ldmia	r5!, {r0, r1, r2, r3}
 2811 0020 0FC4     		stmia	r4!, {r0, r1, r2, r3}
 2812 0022 0FCD     		ldmia	r5!, {r0, r1, r2, r3}
 2813 0024 0FC4     		stmia	r4!, {r0, r1, r2, r3}
 2814 0026 95E80F00 		ldmia	r5, {r0, r1, r2, r3}
 2815 002a 84E80F00 		stmia	r4, {r0, r1, r2, r3}
 2816 002e 14AB     		add	r3, sp, #80
 2817 0030 0FCB     		ldmia	r3, {r0, r1, r2, r3}
 2818 0032 FFF7FEFF 		bl	B3M_Read
 2819              	.LVL166:
 451:Src/B3M.c     **** 	return 0;
 452:Src/B3M.c     **** }
 2820              		.loc 1 452 0
 2821 0036 0020     		movs	r0, #0
 2822 0038 11B0     		add	sp, sp, #68
 2823              	.LCFI225:
 2824              		.cfi_def_cfa_offset 28
 2825              		@ sp needed
 2826 003a BDE83040 		pop	{r4, r5, lr}
 2827              	.LCFI226:
 2828              		.cfi_restore 14
 2829              		.cfi_restore 5
 2830              		.cfi_restore 4
 2831              		.cfi_def_cfa_offset 16
 2832 003e 04B0     		add	sp, sp, #16
 2833              	.LCFI227:
 2834              		.cfi_def_cfa_offset 0
 2835 0040 7047     		bx	lr
 2836              		.cfi_endproc
 2837              	.LFE161:
 2839 0042 00BF     		.section	.text.B3M_CurrentLimit_Write,"ax",%progbits
 2840              		.align	2
 2841              		.global	B3M_CurrentLimit_Write
 2842              		.thumb
 2843              		.thumb_func
 2845              	B3M_CurrentLimit_Write:
 2846              	.LFB162:
 453:Src/B3M.c     **** 
 454:Src/B3M.c     **** uint8_t B3M_CurrentLimit_Write(UART_HandleTypeDef huart, uint8_t SERVO_ID, uint16_t NEW_CURRENT_LIM
 455:Src/B3M.c     **** {
 2847              		.loc 1 455 0
 2848              		.cfi_startproc
 2849              		@ args = 72, pretend = 16, frame = 0
 2850              		@ frame_needed = 0, uses_anonymous_args = 0
 2851              	.LVL167:
 2852 0000 84B0     		sub	sp, sp, #16
 2853              	.LCFI228:
ARM GAS  /tmp/cckyA7fG.s 			page 58


 2854              		.cfi_def_cfa_offset 16
 2855 0002 30B5     		push	{r4, r5, lr}
 2856              	.LCFI229:
 2857              		.cfi_def_cfa_offset 28
 2858              		.cfi_offset 4, -28
 2859              		.cfi_offset 5, -24
 2860              		.cfi_offset 14, -20
 2861 0004 91B0     		sub	sp, sp, #68
 2862              	.LCFI230:
 2863              		.cfi_def_cfa_offset 96
 2864 0006 14AC     		add	r4, sp, #80
 2865 0008 84E80F00 		stmia	r4, {r0, r1, r2, r3}
 456:Src/B3M.c     **** 	B3M_Write_2B(huart, SERVO_ID, NEW_CURRENT_LIMIT, SYSTEM_CURRENT_LIMIT);
 2866              		.loc 1 456 0
 2867 000c 1123     		movs	r3, #17
 2868 000e 0E93     		str	r3, [sp, #56]
 2869 0010 BDF89430 		ldrh	r3, [sp, #148]
 2870 0014 0D93     		str	r3, [sp, #52]
 2871 0016 9DF89030 		ldrb	r3, [sp, #144]	@ zero_extendqisi2
 2872 001a 0C93     		str	r3, [sp, #48]
 2873 001c 6C46     		mov	r4, sp
 2874 001e 18AD     		add	r5, sp, #96
 2875 0020 0FCD     		ldmia	r5!, {r0, r1, r2, r3}
 2876 0022 0FC4     		stmia	r4!, {r0, r1, r2, r3}
 2877 0024 0FCD     		ldmia	r5!, {r0, r1, r2, r3}
 2878 0026 0FC4     		stmia	r4!, {r0, r1, r2, r3}
 2879 0028 95E80F00 		ldmia	r5, {r0, r1, r2, r3}
 2880 002c 84E80F00 		stmia	r4, {r0, r1, r2, r3}
 2881 0030 14AB     		add	r3, sp, #80
 2882 0032 0FCB     		ldmia	r3, {r0, r1, r2, r3}
 2883 0034 FFF7FEFF 		bl	B3M_Write_2B
 2884              	.LVL168:
 457:Src/B3M.c     **** 	return 0;
 458:Src/B3M.c     **** }
 2885              		.loc 1 458 0
 2886 0038 0020     		movs	r0, #0
 2887 003a 11B0     		add	sp, sp, #68
 2888              	.LCFI231:
 2889              		.cfi_def_cfa_offset 28
 2890              		@ sp needed
 2891 003c BDE83040 		pop	{r4, r5, lr}
 2892              	.LCFI232:
 2893              		.cfi_restore 14
 2894              		.cfi_restore 5
 2895              		.cfi_restore 4
 2896              		.cfi_def_cfa_offset 16
 2897 0040 04B0     		add	sp, sp, #16
 2898              	.LCFI233:
 2899              		.cfi_def_cfa_offset 0
 2900 0042 7047     		bx	lr
 2901              		.cfi_endproc
 2902              	.LFE162:
 2904              		.section	.text.B3M_CurrentLimitPR_Read,"ax",%progbits
 2905              		.align	2
 2906              		.global	B3M_CurrentLimitPR_Read
 2907              		.thumb
 2908              		.thumb_func
ARM GAS  /tmp/cckyA7fG.s 			page 59


 2910              	B3M_CurrentLimitPR_Read:
 2911              	.LFB163:
 459:Src/B3M.c     **** 
 460:Src/B3M.c     **** uint8_t B3M_CurrentLimitPR_Read(UART_HandleTypeDef huart, uint8_t SERVO_ID)
 461:Src/B3M.c     **** {
 2912              		.loc 1 461 0
 2913              		.cfi_startproc
 2914              		@ args = 68, pretend = 16, frame = 0
 2915              		@ frame_needed = 0, uses_anonymous_args = 0
 2916              	.LVL169:
 2917 0000 84B0     		sub	sp, sp, #16
 2918              	.LCFI234:
 2919              		.cfi_def_cfa_offset 16
 2920 0002 30B5     		push	{r4, r5, lr}
 2921              	.LCFI235:
 2922              		.cfi_def_cfa_offset 28
 2923              		.cfi_offset 4, -28
 2924              		.cfi_offset 5, -24
 2925              		.cfi_offset 14, -20
 2926 0004 91B0     		sub	sp, sp, #68
 2927              	.LCFI236:
 2928              		.cfi_def_cfa_offset 96
 2929 0006 14AC     		add	r4, sp, #80
 2930 0008 84E80F00 		stmia	r4, {r0, r1, r2, r3}
 462:Src/B3M.c     **** 	B3M_Read(huart, SERVO_ID, SYSTEM_CURRENT_LIMIT_PR, READ_LENGTH_1B);
 2931              		.loc 1 462 0
 2932 000c 0123     		movs	r3, #1
 2933 000e 0E93     		str	r3, [sp, #56]
 2934 0010 1323     		movs	r3, #19
 2935 0012 0D93     		str	r3, [sp, #52]
 2936 0014 9DF89030 		ldrb	r3, [sp, #144]	@ zero_extendqisi2
 2937 0018 0C93     		str	r3, [sp, #48]
 2938 001a 6C46     		mov	r4, sp
 2939 001c 18AD     		add	r5, sp, #96
 2940 001e 0FCD     		ldmia	r5!, {r0, r1, r2, r3}
 2941 0020 0FC4     		stmia	r4!, {r0, r1, r2, r3}
 2942 0022 0FCD     		ldmia	r5!, {r0, r1, r2, r3}
 2943 0024 0FC4     		stmia	r4!, {r0, r1, r2, r3}
 2944 0026 95E80F00 		ldmia	r5, {r0, r1, r2, r3}
 2945 002a 84E80F00 		stmia	r4, {r0, r1, r2, r3}
 2946 002e 14AB     		add	r3, sp, #80
 2947 0030 0FCB     		ldmia	r3, {r0, r1, r2, r3}
 2948 0032 FFF7FEFF 		bl	B3M_Read
 2949              	.LVL170:
 463:Src/B3M.c     **** 	return 0;
 464:Src/B3M.c     **** }
 2950              		.loc 1 464 0
 2951 0036 0020     		movs	r0, #0
 2952 0038 11B0     		add	sp, sp, #68
 2953              	.LCFI237:
 2954              		.cfi_def_cfa_offset 28
 2955              		@ sp needed
 2956 003a BDE83040 		pop	{r4, r5, lr}
 2957              	.LCFI238:
 2958              		.cfi_restore 14
 2959              		.cfi_restore 5
 2960              		.cfi_restore 4
ARM GAS  /tmp/cckyA7fG.s 			page 60


 2961              		.cfi_def_cfa_offset 16
 2962 003e 04B0     		add	sp, sp, #16
 2963              	.LCFI239:
 2964              		.cfi_def_cfa_offset 0
 2965 0040 7047     		bx	lr
 2966              		.cfi_endproc
 2967              	.LFE163:
 2969 0042 00BF     		.section	.text.B3M_CurrentLimitPR_Write,"ax",%progbits
 2970              		.align	2
 2971              		.global	B3M_CurrentLimitPR_Write
 2972              		.thumb
 2973              		.thumb_func
 2975              	B3M_CurrentLimitPR_Write:
 2976              	.LFB164:
 465:Src/B3M.c     **** 
 466:Src/B3M.c     **** uint8_t B3M_CurrentLimitPR_Write(UART_HandleTypeDef huart, uint8_t SERVO_ID, uint8_t NEW_CURRENT_LI
 467:Src/B3M.c     **** {
 2977              		.loc 1 467 0
 2978              		.cfi_startproc
 2979              		@ args = 72, pretend = 16, frame = 0
 2980              		@ frame_needed = 0, uses_anonymous_args = 0
 2981              	.LVL171:
 2982 0000 84B0     		sub	sp, sp, #16
 2983              	.LCFI240:
 2984              		.cfi_def_cfa_offset 16
 2985 0002 30B5     		push	{r4, r5, lr}
 2986              	.LCFI241:
 2987              		.cfi_def_cfa_offset 28
 2988              		.cfi_offset 4, -28
 2989              		.cfi_offset 5, -24
 2990              		.cfi_offset 14, -20
 2991 0004 91B0     		sub	sp, sp, #68
 2992              	.LCFI242:
 2993              		.cfi_def_cfa_offset 96
 2994 0006 14AC     		add	r4, sp, #80
 2995 0008 84E80F00 		stmia	r4, {r0, r1, r2, r3}
 468:Src/B3M.c     **** 	B3M_Write_1B(huart, SERVO_ID, NEW_CURRENT_LIMIT_PR, SYSTEM_CURRENT_LIMIT_PR);
 2996              		.loc 1 468 0
 2997 000c 1323     		movs	r3, #19
 2998 000e 0E93     		str	r3, [sp, #56]
 2999 0010 9DF89430 		ldrb	r3, [sp, #148]	@ zero_extendqisi2
 3000 0014 0D93     		str	r3, [sp, #52]
 3001 0016 9DF89030 		ldrb	r3, [sp, #144]	@ zero_extendqisi2
 3002 001a 0C93     		str	r3, [sp, #48]
 3003 001c 6C46     		mov	r4, sp
 3004 001e 18AD     		add	r5, sp, #96
 3005 0020 0FCD     		ldmia	r5!, {r0, r1, r2, r3}
 3006 0022 0FC4     		stmia	r4!, {r0, r1, r2, r3}
 3007 0024 0FCD     		ldmia	r5!, {r0, r1, r2, r3}
 3008 0026 0FC4     		stmia	r4!, {r0, r1, r2, r3}
 3009 0028 95E80F00 		ldmia	r5, {r0, r1, r2, r3}
 3010 002c 84E80F00 		stmia	r4, {r0, r1, r2, r3}
 3011 0030 14AB     		add	r3, sp, #80
 3012 0032 0FCB     		ldmia	r3, {r0, r1, r2, r3}
 3013 0034 FFF7FEFF 		bl	B3M_Write_1B
 3014              	.LVL172:
 469:Src/B3M.c     **** 	return 0;
ARM GAS  /tmp/cckyA7fG.s 			page 61


 470:Src/B3M.c     **** }
 3015              		.loc 1 470 0
 3016 0038 0020     		movs	r0, #0
 3017 003a 11B0     		add	sp, sp, #68
 3018              	.LCFI243:
 3019              		.cfi_def_cfa_offset 28
 3020              		@ sp needed
 3021 003c BDE83040 		pop	{r4, r5, lr}
 3022              	.LCFI244:
 3023              		.cfi_restore 14
 3024              		.cfi_restore 5
 3025              		.cfi_restore 4
 3026              		.cfi_def_cfa_offset 16
 3027 0040 04B0     		add	sp, sp, #16
 3028              	.LCFI245:
 3029              		.cfi_def_cfa_offset 0
 3030 0042 7047     		bx	lr
 3031              		.cfi_endproc
 3032              	.LFE164:
 3034              		.section	.text.B3M_LockDetectTime_Read,"ax",%progbits
 3035              		.align	2
 3036              		.global	B3M_LockDetectTime_Read
 3037              		.thumb
 3038              		.thumb_func
 3040              	B3M_LockDetectTime_Read:
 3041              	.LFB165:
 471:Src/B3M.c     **** 
 472:Src/B3M.c     **** uint8_t B3M_LockDetectTime_Read(UART_HandleTypeDef huart, uint8_t SERVO_ID)
 473:Src/B3M.c     **** {
 3042              		.loc 1 473 0
 3043              		.cfi_startproc
 3044              		@ args = 68, pretend = 16, frame = 0
 3045              		@ frame_needed = 0, uses_anonymous_args = 0
 3046              	.LVL173:
 3047 0000 84B0     		sub	sp, sp, #16
 3048              	.LCFI246:
 3049              		.cfi_def_cfa_offset 16
 3050 0002 30B5     		push	{r4, r5, lr}
 3051              	.LCFI247:
 3052              		.cfi_def_cfa_offset 28
 3053              		.cfi_offset 4, -28
 3054              		.cfi_offset 5, -24
 3055              		.cfi_offset 14, -20
 3056 0004 91B0     		sub	sp, sp, #68
 3057              	.LCFI248:
 3058              		.cfi_def_cfa_offset 96
 3059 0006 14AC     		add	r4, sp, #80
 3060 0008 84E80F00 		stmia	r4, {r0, r1, r2, r3}
 474:Src/B3M.c     **** 	B3M_Read(huart, SERVO_ID, SYSTEM_LOCKDETECT_TIME, READ_LENGTH_1B);
 3061              		.loc 1 474 0
 3062 000c 0123     		movs	r3, #1
 3063 000e 0E93     		str	r3, [sp, #56]
 3064 0010 1423     		movs	r3, #20
 3065 0012 0D93     		str	r3, [sp, #52]
 3066 0014 9DF89030 		ldrb	r3, [sp, #144]	@ zero_extendqisi2
 3067 0018 0C93     		str	r3, [sp, #48]
 3068 001a 6C46     		mov	r4, sp
ARM GAS  /tmp/cckyA7fG.s 			page 62


 3069 001c 18AD     		add	r5, sp, #96
 3070 001e 0FCD     		ldmia	r5!, {r0, r1, r2, r3}
 3071 0020 0FC4     		stmia	r4!, {r0, r1, r2, r3}
 3072 0022 0FCD     		ldmia	r5!, {r0, r1, r2, r3}
 3073 0024 0FC4     		stmia	r4!, {r0, r1, r2, r3}
 3074 0026 95E80F00 		ldmia	r5, {r0, r1, r2, r3}
 3075 002a 84E80F00 		stmia	r4, {r0, r1, r2, r3}
 3076 002e 14AB     		add	r3, sp, #80
 3077 0030 0FCB     		ldmia	r3, {r0, r1, r2, r3}
 3078 0032 FFF7FEFF 		bl	B3M_Read
 3079              	.LVL174:
 475:Src/B3M.c     **** 	return 0;
 476:Src/B3M.c     **** }
 3080              		.loc 1 476 0
 3081 0036 0020     		movs	r0, #0
 3082 0038 11B0     		add	sp, sp, #68
 3083              	.LCFI249:
 3084              		.cfi_def_cfa_offset 28
 3085              		@ sp needed
 3086 003a BDE83040 		pop	{r4, r5, lr}
 3087              	.LCFI250:
 3088              		.cfi_restore 14
 3089              		.cfi_restore 5
 3090              		.cfi_restore 4
 3091              		.cfi_def_cfa_offset 16
 3092 003e 04B0     		add	sp, sp, #16
 3093              	.LCFI251:
 3094              		.cfi_def_cfa_offset 0
 3095 0040 7047     		bx	lr
 3096              		.cfi_endproc
 3097              	.LFE165:
 3099 0042 00BF     		.section	.text.B3M_LockDetectTime_Write,"ax",%progbits
 3100              		.align	2
 3101              		.global	B3M_LockDetectTime_Write
 3102              		.thumb
 3103              		.thumb_func
 3105              	B3M_LockDetectTime_Write:
 3106              	.LFB166:
 477:Src/B3M.c     **** 
 478:Src/B3M.c     **** uint8_t B3M_LockDetectTime_Write(UART_HandleTypeDef huart, uint8_t SERVO_ID, uint8_t NEW_LOCKDETECT
 479:Src/B3M.c     **** {
 3107              		.loc 1 479 0
 3108              		.cfi_startproc
 3109              		@ args = 72, pretend = 16, frame = 0
 3110              		@ frame_needed = 0, uses_anonymous_args = 0
 3111              	.LVL175:
 3112 0000 84B0     		sub	sp, sp, #16
 3113              	.LCFI252:
 3114              		.cfi_def_cfa_offset 16
 3115 0002 30B5     		push	{r4, r5, lr}
 3116              	.LCFI253:
 3117              		.cfi_def_cfa_offset 28
 3118              		.cfi_offset 4, -28
 3119              		.cfi_offset 5, -24
 3120              		.cfi_offset 14, -20
 3121 0004 91B0     		sub	sp, sp, #68
 3122              	.LCFI254:
ARM GAS  /tmp/cckyA7fG.s 			page 63


 3123              		.cfi_def_cfa_offset 96
 3124 0006 14AC     		add	r4, sp, #80
 3125 0008 84E80F00 		stmia	r4, {r0, r1, r2, r3}
 480:Src/B3M.c     **** 	B3M_Write_1B(huart, SERVO_ID, NEW_LOCKDETECT_TIME, SYSTEM_LOCKDETECT_TIME);
 3126              		.loc 1 480 0
 3127 000c 1423     		movs	r3, #20
 3128 000e 0E93     		str	r3, [sp, #56]
 3129 0010 9DF89430 		ldrb	r3, [sp, #148]	@ zero_extendqisi2
 3130 0014 0D93     		str	r3, [sp, #52]
 3131 0016 9DF89030 		ldrb	r3, [sp, #144]	@ zero_extendqisi2
 3132 001a 0C93     		str	r3, [sp, #48]
 3133 001c 6C46     		mov	r4, sp
 3134 001e 18AD     		add	r5, sp, #96
 3135 0020 0FCD     		ldmia	r5!, {r0, r1, r2, r3}
 3136 0022 0FC4     		stmia	r4!, {r0, r1, r2, r3}
 3137 0024 0FCD     		ldmia	r5!, {r0, r1, r2, r3}
 3138 0026 0FC4     		stmia	r4!, {r0, r1, r2, r3}
 3139 0028 95E80F00 		ldmia	r5, {r0, r1, r2, r3}
 3140 002c 84E80F00 		stmia	r4, {r0, r1, r2, r3}
 3141 0030 14AB     		add	r3, sp, #80
 3142 0032 0FCB     		ldmia	r3, {r0, r1, r2, r3}
 3143 0034 FFF7FEFF 		bl	B3M_Write_1B
 3144              	.LVL176:
 481:Src/B3M.c     **** 	return 0;
 482:Src/B3M.c     **** }
 3145              		.loc 1 482 0
 3146 0038 0020     		movs	r0, #0
 3147 003a 11B0     		add	sp, sp, #68
 3148              	.LCFI255:
 3149              		.cfi_def_cfa_offset 28
 3150              		@ sp needed
 3151 003c BDE83040 		pop	{r4, r5, lr}
 3152              	.LCFI256:
 3153              		.cfi_restore 14
 3154              		.cfi_restore 5
 3155              		.cfi_restore 4
 3156              		.cfi_def_cfa_offset 16
 3157 0040 04B0     		add	sp, sp, #16
 3158              	.LCFI257:
 3159              		.cfi_def_cfa_offset 0
 3160 0042 7047     		bx	lr
 3161              		.cfi_endproc
 3162              	.LFE166:
 3164              		.section	.text.B3M_LockDetectOutrate_Read,"ax",%progbits
 3165              		.align	2
 3166              		.global	B3M_LockDetectOutrate_Read
 3167              		.thumb
 3168              		.thumb_func
 3170              	B3M_LockDetectOutrate_Read:
 3171              	.LFB167:
 483:Src/B3M.c     **** //
 484:Src/B3M.c     **** uint8_t B3M_LockDetectOutrate_Read(UART_HandleTypeDef huart, uint8_t SERVO_ID)
 485:Src/B3M.c     **** {
 3172              		.loc 1 485 0
 3173              		.cfi_startproc
 3174              		@ args = 68, pretend = 16, frame = 0
 3175              		@ frame_needed = 0, uses_anonymous_args = 0
ARM GAS  /tmp/cckyA7fG.s 			page 64


 3176              	.LVL177:
 3177 0000 84B0     		sub	sp, sp, #16
 3178              	.LCFI258:
 3179              		.cfi_def_cfa_offset 16
 3180 0002 30B5     		push	{r4, r5, lr}
 3181              	.LCFI259:
 3182              		.cfi_def_cfa_offset 28
 3183              		.cfi_offset 4, -28
 3184              		.cfi_offset 5, -24
 3185              		.cfi_offset 14, -20
 3186 0004 91B0     		sub	sp, sp, #68
 3187              	.LCFI260:
 3188              		.cfi_def_cfa_offset 96
 3189 0006 14AC     		add	r4, sp, #80
 3190 0008 84E80F00 		stmia	r4, {r0, r1, r2, r3}
 486:Src/B3M.c     **** 	B3M_Read(huart, SERVO_ID, SYSTEM_LOCKDETECT_OUTRATE, READ_LENGTH_1B);
 3191              		.loc 1 486 0
 3192 000c 0123     		movs	r3, #1
 3193 000e 0E93     		str	r3, [sp, #56]
 3194 0010 1523     		movs	r3, #21
 3195 0012 0D93     		str	r3, [sp, #52]
 3196 0014 9DF89030 		ldrb	r3, [sp, #144]	@ zero_extendqisi2
 3197 0018 0C93     		str	r3, [sp, #48]
 3198 001a 6C46     		mov	r4, sp
 3199 001c 18AD     		add	r5, sp, #96
 3200 001e 0FCD     		ldmia	r5!, {r0, r1, r2, r3}
 3201 0020 0FC4     		stmia	r4!, {r0, r1, r2, r3}
 3202 0022 0FCD     		ldmia	r5!, {r0, r1, r2, r3}
 3203 0024 0FC4     		stmia	r4!, {r0, r1, r2, r3}
 3204 0026 95E80F00 		ldmia	r5, {r0, r1, r2, r3}
 3205 002a 84E80F00 		stmia	r4, {r0, r1, r2, r3}
 3206 002e 14AB     		add	r3, sp, #80
 3207 0030 0FCB     		ldmia	r3, {r0, r1, r2, r3}
 3208 0032 FFF7FEFF 		bl	B3M_Read
 3209              	.LVL178:
 487:Src/B3M.c     **** 	return 0;
 488:Src/B3M.c     **** }
 3210              		.loc 1 488 0
 3211 0036 0020     		movs	r0, #0
 3212 0038 11B0     		add	sp, sp, #68
 3213              	.LCFI261:
 3214              		.cfi_def_cfa_offset 28
 3215              		@ sp needed
 3216 003a BDE83040 		pop	{r4, r5, lr}
 3217              	.LCFI262:
 3218              		.cfi_restore 14
 3219              		.cfi_restore 5
 3220              		.cfi_restore 4
 3221              		.cfi_def_cfa_offset 16
 3222 003e 04B0     		add	sp, sp, #16
 3223              	.LCFI263:
 3224              		.cfi_def_cfa_offset 0
 3225 0040 7047     		bx	lr
 3226              		.cfi_endproc
 3227              	.LFE167:
 3229 0042 00BF     		.section	.text.B3M_LockDetectOutrate_Write,"ax",%progbits
 3230              		.align	2
ARM GAS  /tmp/cckyA7fG.s 			page 65


 3231              		.global	B3M_LockDetectOutrate_Write
 3232              		.thumb
 3233              		.thumb_func
 3235              	B3M_LockDetectOutrate_Write:
 3236              	.LFB168:
 489:Src/B3M.c     **** 
 490:Src/B3M.c     **** uint8_t B3M_LockDetectOutrate_Write(UART_HandleTypeDef huart, uint8_t SERVO_ID, uint8_t NEW_LOCKDET
 491:Src/B3M.c     **** {
 3237              		.loc 1 491 0
 3238              		.cfi_startproc
 3239              		@ args = 72, pretend = 16, frame = 0
 3240              		@ frame_needed = 0, uses_anonymous_args = 0
 3241              	.LVL179:
 3242 0000 84B0     		sub	sp, sp, #16
 3243              	.LCFI264:
 3244              		.cfi_def_cfa_offset 16
 3245 0002 30B5     		push	{r4, r5, lr}
 3246              	.LCFI265:
 3247              		.cfi_def_cfa_offset 28
 3248              		.cfi_offset 4, -28
 3249              		.cfi_offset 5, -24
 3250              		.cfi_offset 14, -20
 3251 0004 91B0     		sub	sp, sp, #68
 3252              	.LCFI266:
 3253              		.cfi_def_cfa_offset 96
 3254 0006 14AC     		add	r4, sp, #80
 3255 0008 84E80F00 		stmia	r4, {r0, r1, r2, r3}
 492:Src/B3M.c     **** 	B3M_Write_1B(huart, SERVO_ID, NEW_LOCKDETECT_OUTRATE, SYSTEM_LOCKDETECT_OUTRATE);
 3256              		.loc 1 492 0
 3257 000c 1523     		movs	r3, #21
 3258 000e 0E93     		str	r3, [sp, #56]
 3259 0010 9DF89430 		ldrb	r3, [sp, #148]	@ zero_extendqisi2
 3260 0014 0D93     		str	r3, [sp, #52]
 3261 0016 9DF89030 		ldrb	r3, [sp, #144]	@ zero_extendqisi2
 3262 001a 0C93     		str	r3, [sp, #48]
 3263 001c 6C46     		mov	r4, sp
 3264 001e 18AD     		add	r5, sp, #96
 3265 0020 0FCD     		ldmia	r5!, {r0, r1, r2, r3}
 3266 0022 0FC4     		stmia	r4!, {r0, r1, r2, r3}
 3267 0024 0FCD     		ldmia	r5!, {r0, r1, r2, r3}
 3268 0026 0FC4     		stmia	r4!, {r0, r1, r2, r3}
 3269 0028 95E80F00 		ldmia	r5, {r0, r1, r2, r3}
 3270 002c 84E80F00 		stmia	r4, {r0, r1, r2, r3}
 3271 0030 14AB     		add	r3, sp, #80
 3272 0032 0FCB     		ldmia	r3, {r0, r1, r2, r3}
 3273 0034 FFF7FEFF 		bl	B3M_Write_1B
 3274              	.LVL180:
 493:Src/B3M.c     **** 	return 0;
 494:Src/B3M.c     **** }
 3275              		.loc 1 494 0
 3276 0038 0020     		movs	r0, #0
 3277 003a 11B0     		add	sp, sp, #68
 3278              	.LCFI267:
 3279              		.cfi_def_cfa_offset 28
 3280              		@ sp needed
 3281 003c BDE83040 		pop	{r4, r5, lr}
 3282              	.LCFI268:
ARM GAS  /tmp/cckyA7fG.s 			page 66


 3283              		.cfi_restore 14
 3284              		.cfi_restore 5
 3285              		.cfi_restore 4
 3286              		.cfi_def_cfa_offset 16
 3287 0040 04B0     		add	sp, sp, #16
 3288              	.LCFI269:
 3289              		.cfi_def_cfa_offset 0
 3290 0042 7047     		bx	lr
 3291              		.cfi_endproc
 3292              	.LFE168:
 3294              		.section	.text.B3M_LockDetectTimePR_Read,"ax",%progbits
 3295              		.align	2
 3296              		.global	B3M_LockDetectTimePR_Read
 3297              		.thumb
 3298              		.thumb_func
 3300              	B3M_LockDetectTimePR_Read:
 3301              	.LFB169:
 495:Src/B3M.c     **** 
 496:Src/B3M.c     **** uint8_t B3M_LockDetectTimePR_Read(UART_HandleTypeDef huart, uint8_t SERVO_ID)
 497:Src/B3M.c     **** {
 3302              		.loc 1 497 0
 3303              		.cfi_startproc
 3304              		@ args = 68, pretend = 16, frame = 0
 3305              		@ frame_needed = 0, uses_anonymous_args = 0
 3306              	.LVL181:
 3307 0000 84B0     		sub	sp, sp, #16
 3308              	.LCFI270:
 3309              		.cfi_def_cfa_offset 16
 3310 0002 30B5     		push	{r4, r5, lr}
 3311              	.LCFI271:
 3312              		.cfi_def_cfa_offset 28
 3313              		.cfi_offset 4, -28
 3314              		.cfi_offset 5, -24
 3315              		.cfi_offset 14, -20
 3316 0004 91B0     		sub	sp, sp, #68
 3317              	.LCFI272:
 3318              		.cfi_def_cfa_offset 96
 3319 0006 14AC     		add	r4, sp, #80
 3320 0008 84E80F00 		stmia	r4, {r0, r1, r2, r3}
 498:Src/B3M.c     **** 	B3M_Read(huart, SERVO_ID, SYSTEM_LOCKDETECT_TIME_PR, READ_LENGTH_1B);
 3321              		.loc 1 498 0
 3322 000c 0123     		movs	r3, #1
 3323 000e 0E93     		str	r3, [sp, #56]
 3324 0010 1623     		movs	r3, #22
 3325 0012 0D93     		str	r3, [sp, #52]
 3326 0014 9DF89030 		ldrb	r3, [sp, #144]	@ zero_extendqisi2
 3327 0018 0C93     		str	r3, [sp, #48]
 3328 001a 6C46     		mov	r4, sp
 3329 001c 18AD     		add	r5, sp, #96
 3330 001e 0FCD     		ldmia	r5!, {r0, r1, r2, r3}
 3331 0020 0FC4     		stmia	r4!, {r0, r1, r2, r3}
 3332 0022 0FCD     		ldmia	r5!, {r0, r1, r2, r3}
 3333 0024 0FC4     		stmia	r4!, {r0, r1, r2, r3}
 3334 0026 95E80F00 		ldmia	r5, {r0, r1, r2, r3}
 3335 002a 84E80F00 		stmia	r4, {r0, r1, r2, r3}
 3336 002e 14AB     		add	r3, sp, #80
 3337 0030 0FCB     		ldmia	r3, {r0, r1, r2, r3}
ARM GAS  /tmp/cckyA7fG.s 			page 67


 3338 0032 FFF7FEFF 		bl	B3M_Read
 3339              	.LVL182:
 499:Src/B3M.c     **** 	return 0;
 500:Src/B3M.c     **** }
 3340              		.loc 1 500 0
 3341 0036 0020     		movs	r0, #0
 3342 0038 11B0     		add	sp, sp, #68
 3343              	.LCFI273:
 3344              		.cfi_def_cfa_offset 28
 3345              		@ sp needed
 3346 003a BDE83040 		pop	{r4, r5, lr}
 3347              	.LCFI274:
 3348              		.cfi_restore 14
 3349              		.cfi_restore 5
 3350              		.cfi_restore 4
 3351              		.cfi_def_cfa_offset 16
 3352 003e 04B0     		add	sp, sp, #16
 3353              	.LCFI275:
 3354              		.cfi_def_cfa_offset 0
 3355 0040 7047     		bx	lr
 3356              		.cfi_endproc
 3357              	.LFE169:
 3359 0042 00BF     		.section	.text.B3M_LockDetectTimePR_Write,"ax",%progbits
 3360              		.align	2
 3361              		.global	B3M_LockDetectTimePR_Write
 3362              		.thumb
 3363              		.thumb_func
 3365              	B3M_LockDetectTimePR_Write:
 3366              	.LFB170:
 501:Src/B3M.c     **** 
 502:Src/B3M.c     **** uint8_t B3M_LockDetectTimePR_Write(UART_HandleTypeDef huart, uint8_t SERVO_ID, uint8_t NEW_LOCKDETE
 503:Src/B3M.c     **** {
 3367              		.loc 1 503 0
 3368              		.cfi_startproc
 3369              		@ args = 72, pretend = 16, frame = 0
 3370              		@ frame_needed = 0, uses_anonymous_args = 0
 3371              	.LVL183:
 3372 0000 84B0     		sub	sp, sp, #16
 3373              	.LCFI276:
 3374              		.cfi_def_cfa_offset 16
 3375 0002 30B5     		push	{r4, r5, lr}
 3376              	.LCFI277:
 3377              		.cfi_def_cfa_offset 28
 3378              		.cfi_offset 4, -28
 3379              		.cfi_offset 5, -24
 3380              		.cfi_offset 14, -20
 3381 0004 91B0     		sub	sp, sp, #68
 3382              	.LCFI278:
 3383              		.cfi_def_cfa_offset 96
 3384 0006 14AC     		add	r4, sp, #80
 3385 0008 84E80F00 		stmia	r4, {r0, r1, r2, r3}
 504:Src/B3M.c     **** 	B3M_Write_1B(huart, SERVO_ID, NEW_LOCKDETECT_TIME_PR, SYSTEM_LOCKDETECT_TIME_PR);
 3386              		.loc 1 504 0
 3387 000c 1623     		movs	r3, #22
 3388 000e 0E93     		str	r3, [sp, #56]
 3389 0010 9DF89430 		ldrb	r3, [sp, #148]	@ zero_extendqisi2
 3390 0014 0D93     		str	r3, [sp, #52]
ARM GAS  /tmp/cckyA7fG.s 			page 68


 3391 0016 9DF89030 		ldrb	r3, [sp, #144]	@ zero_extendqisi2
 3392 001a 0C93     		str	r3, [sp, #48]
 3393 001c 6C46     		mov	r4, sp
 3394 001e 18AD     		add	r5, sp, #96
 3395 0020 0FCD     		ldmia	r5!, {r0, r1, r2, r3}
 3396 0022 0FC4     		stmia	r4!, {r0, r1, r2, r3}
 3397 0024 0FCD     		ldmia	r5!, {r0, r1, r2, r3}
 3398 0026 0FC4     		stmia	r4!, {r0, r1, r2, r3}
 3399 0028 95E80F00 		ldmia	r5, {r0, r1, r2, r3}
 3400 002c 84E80F00 		stmia	r4, {r0, r1, r2, r3}
 3401 0030 14AB     		add	r3, sp, #80
 3402 0032 0FCB     		ldmia	r3, {r0, r1, r2, r3}
 3403 0034 FFF7FEFF 		bl	B3M_Write_1B
 3404              	.LVL184:
 505:Src/B3M.c     **** 	return 0;
 506:Src/B3M.c     **** }
 3405              		.loc 1 506 0
 3406 0038 0020     		movs	r0, #0
 3407 003a 11B0     		add	sp, sp, #68
 3408              	.LCFI279:
 3409              		.cfi_def_cfa_offset 28
 3410              		@ sp needed
 3411 003c BDE83040 		pop	{r4, r5, lr}
 3412              	.LCFI280:
 3413              		.cfi_restore 14
 3414              		.cfi_restore 5
 3415              		.cfi_restore 4
 3416              		.cfi_def_cfa_offset 16
 3417 0040 04B0     		add	sp, sp, #16
 3418              	.LCFI281:
 3419              		.cfi_def_cfa_offset 0
 3420 0042 7047     		bx	lr
 3421              		.cfi_endproc
 3422              	.LFE170:
 3424              		.section	.text.B3M_InputVoltageMin_Read,"ax",%progbits
 3425              		.align	2
 3426              		.global	B3M_InputVoltageMin_Read
 3427              		.thumb
 3428              		.thumb_func
 3430              	B3M_InputVoltageMin_Read:
 3431              	.LFB171:
 507:Src/B3M.c     **** 
 508:Src/B3M.c     **** uint8_t B3M_InputVoltageMin_Read(UART_HandleTypeDef huart, uint8_t SERVO_ID)
 509:Src/B3M.c     **** {
 3432              		.loc 1 509 0
 3433              		.cfi_startproc
 3434              		@ args = 68, pretend = 16, frame = 0
 3435              		@ frame_needed = 0, uses_anonymous_args = 0
 3436              	.LVL185:
 3437 0000 84B0     		sub	sp, sp, #16
 3438              	.LCFI282:
 3439              		.cfi_def_cfa_offset 16
 3440 0002 30B5     		push	{r4, r5, lr}
 3441              	.LCFI283:
 3442              		.cfi_def_cfa_offset 28
 3443              		.cfi_offset 4, -28
 3444              		.cfi_offset 5, -24
ARM GAS  /tmp/cckyA7fG.s 			page 69


 3445              		.cfi_offset 14, -20
 3446 0004 91B0     		sub	sp, sp, #68
 3447              	.LCFI284:
 3448              		.cfi_def_cfa_offset 96
 3449 0006 14AC     		add	r4, sp, #80
 3450 0008 84E80F00 		stmia	r4, {r0, r1, r2, r3}
 510:Src/B3M.c     **** 	B3M_Read(huart, SERVO_ID, SYSTEM_INPUT_VOLTAGE_MIN, READ_LENGTH_2B);
 3451              		.loc 1 510 0
 3452 000c 0223     		movs	r3, #2
 3453 000e 0E93     		str	r3, [sp, #56]
 3454 0010 1723     		movs	r3, #23
 3455 0012 0D93     		str	r3, [sp, #52]
 3456 0014 9DF89030 		ldrb	r3, [sp, #144]	@ zero_extendqisi2
 3457 0018 0C93     		str	r3, [sp, #48]
 3458 001a 6C46     		mov	r4, sp
 3459 001c 18AD     		add	r5, sp, #96
 3460 001e 0FCD     		ldmia	r5!, {r0, r1, r2, r3}
 3461 0020 0FC4     		stmia	r4!, {r0, r1, r2, r3}
 3462 0022 0FCD     		ldmia	r5!, {r0, r1, r2, r3}
 3463 0024 0FC4     		stmia	r4!, {r0, r1, r2, r3}
 3464 0026 95E80F00 		ldmia	r5, {r0, r1, r2, r3}
 3465 002a 84E80F00 		stmia	r4, {r0, r1, r2, r3}
 3466 002e 14AB     		add	r3, sp, #80
 3467 0030 0FCB     		ldmia	r3, {r0, r1, r2, r3}
 3468 0032 FFF7FEFF 		bl	B3M_Read
 3469              	.LVL186:
 511:Src/B3M.c     **** 	return 0;
 512:Src/B3M.c     **** }
 3470              		.loc 1 512 0
 3471 0036 0020     		movs	r0, #0
 3472 0038 11B0     		add	sp, sp, #68
 3473              	.LCFI285:
 3474              		.cfi_def_cfa_offset 28
 3475              		@ sp needed
 3476 003a BDE83040 		pop	{r4, r5, lr}
 3477              	.LCFI286:
 3478              		.cfi_restore 14
 3479              		.cfi_restore 5
 3480              		.cfi_restore 4
 3481              		.cfi_def_cfa_offset 16
 3482 003e 04B0     		add	sp, sp, #16
 3483              	.LCFI287:
 3484              		.cfi_def_cfa_offset 0
 3485 0040 7047     		bx	lr
 3486              		.cfi_endproc
 3487              	.LFE171:
 3489 0042 00BF     		.section	.text.B3M_InputVoltageMin_Write,"ax",%progbits
 3490              		.align	2
 3491              		.global	B3M_InputVoltageMin_Write
 3492              		.thumb
 3493              		.thumb_func
 3495              	B3M_InputVoltageMin_Write:
 3496              	.LFB172:
 513:Src/B3M.c     **** 
 514:Src/B3M.c     **** uint8_t B3M_InputVoltageMin_Write(UART_HandleTypeDef huart, uint8_t SERVO_ID, uint16_t NEW_INPUT_VO
 515:Src/B3M.c     **** {
 3497              		.loc 1 515 0
ARM GAS  /tmp/cckyA7fG.s 			page 70


 3498              		.cfi_startproc
 3499              		@ args = 72, pretend = 16, frame = 0
 3500              		@ frame_needed = 0, uses_anonymous_args = 0
 3501              	.LVL187:
 3502 0000 84B0     		sub	sp, sp, #16
 3503              	.LCFI288:
 3504              		.cfi_def_cfa_offset 16
 3505 0002 30B5     		push	{r4, r5, lr}
 3506              	.LCFI289:
 3507              		.cfi_def_cfa_offset 28
 3508              		.cfi_offset 4, -28
 3509              		.cfi_offset 5, -24
 3510              		.cfi_offset 14, -20
 3511 0004 91B0     		sub	sp, sp, #68
 3512              	.LCFI290:
 3513              		.cfi_def_cfa_offset 96
 3514 0006 14AC     		add	r4, sp, #80
 3515 0008 84E80F00 		stmia	r4, {r0, r1, r2, r3}
 516:Src/B3M.c     **** 	B3M_Write_2B(huart, SERVO_ID, NEW_INPUT_VOLTAGE_MIN, SYSTEM_INPUT_VOLTAGE_MIN);
 3516              		.loc 1 516 0
 3517 000c 1723     		movs	r3, #23
 3518 000e 0E93     		str	r3, [sp, #56]
 3519 0010 BDF89430 		ldrh	r3, [sp, #148]
 3520 0014 0D93     		str	r3, [sp, #52]
 3521 0016 9DF89030 		ldrb	r3, [sp, #144]	@ zero_extendqisi2
 3522 001a 0C93     		str	r3, [sp, #48]
 3523 001c 6C46     		mov	r4, sp
 3524 001e 18AD     		add	r5, sp, #96
 3525 0020 0FCD     		ldmia	r5!, {r0, r1, r2, r3}
 3526 0022 0FC4     		stmia	r4!, {r0, r1, r2, r3}
 3527 0024 0FCD     		ldmia	r5!, {r0, r1, r2, r3}
 3528 0026 0FC4     		stmia	r4!, {r0, r1, r2, r3}
 3529 0028 95E80F00 		ldmia	r5, {r0, r1, r2, r3}
 3530 002c 84E80F00 		stmia	r4, {r0, r1, r2, r3}
 3531 0030 14AB     		add	r3, sp, #80
 3532 0032 0FCB     		ldmia	r3, {r0, r1, r2, r3}
 3533 0034 FFF7FEFF 		bl	B3M_Write_2B
 3534              	.LVL188:
 517:Src/B3M.c     **** 	return 0;
 518:Src/B3M.c     **** }
 3535              		.loc 1 518 0
 3536 0038 0020     		movs	r0, #0
 3537 003a 11B0     		add	sp, sp, #68
 3538              	.LCFI291:
 3539              		.cfi_def_cfa_offset 28
 3540              		@ sp needed
 3541 003c BDE83040 		pop	{r4, r5, lr}
 3542              	.LCFI292:
 3543              		.cfi_restore 14
 3544              		.cfi_restore 5
 3545              		.cfi_restore 4
 3546              		.cfi_def_cfa_offset 16
 3547 0040 04B0     		add	sp, sp, #16
 3548              	.LCFI293:
 3549              		.cfi_def_cfa_offset 0
 3550 0042 7047     		bx	lr
 3551              		.cfi_endproc
ARM GAS  /tmp/cckyA7fG.s 			page 71


 3552              	.LFE172:
 3554              		.section	.text.B3M_InputVoltageMax_Read,"ax",%progbits
 3555              		.align	2
 3556              		.global	B3M_InputVoltageMax_Read
 3557              		.thumb
 3558              		.thumb_func
 3560              	B3M_InputVoltageMax_Read:
 3561              	.LFB173:
 519:Src/B3M.c     **** 
 520:Src/B3M.c     **** uint8_t B3M_InputVoltageMax_Read(UART_HandleTypeDef huart, uint8_t SERVO_ID)
 521:Src/B3M.c     **** {
 3562              		.loc 1 521 0
 3563              		.cfi_startproc
 3564              		@ args = 68, pretend = 16, frame = 0
 3565              		@ frame_needed = 0, uses_anonymous_args = 0
 3566              	.LVL189:
 3567 0000 84B0     		sub	sp, sp, #16
 3568              	.LCFI294:
 3569              		.cfi_def_cfa_offset 16
 3570 0002 30B5     		push	{r4, r5, lr}
 3571              	.LCFI295:
 3572              		.cfi_def_cfa_offset 28
 3573              		.cfi_offset 4, -28
 3574              		.cfi_offset 5, -24
 3575              		.cfi_offset 14, -20
 3576 0004 91B0     		sub	sp, sp, #68
 3577              	.LCFI296:
 3578              		.cfi_def_cfa_offset 96
 3579 0006 14AC     		add	r4, sp, #80
 3580 0008 84E80F00 		stmia	r4, {r0, r1, r2, r3}
 522:Src/B3M.c     **** 	B3M_Read(huart, SERVO_ID, SYSTEM_INPUT_VOLTAGE_MAX, READ_LENGTH_2B);
 3581              		.loc 1 522 0
 3582 000c 0223     		movs	r3, #2
 3583 000e 0E93     		str	r3, [sp, #56]
 3584 0010 1923     		movs	r3, #25
 3585 0012 0D93     		str	r3, [sp, #52]
 3586 0014 9DF89030 		ldrb	r3, [sp, #144]	@ zero_extendqisi2
 3587 0018 0C93     		str	r3, [sp, #48]
 3588 001a 6C46     		mov	r4, sp
 3589 001c 18AD     		add	r5, sp, #96
 3590 001e 0FCD     		ldmia	r5!, {r0, r1, r2, r3}
 3591 0020 0FC4     		stmia	r4!, {r0, r1, r2, r3}
 3592 0022 0FCD     		ldmia	r5!, {r0, r1, r2, r3}
 3593 0024 0FC4     		stmia	r4!, {r0, r1, r2, r3}
 3594 0026 95E80F00 		ldmia	r5, {r0, r1, r2, r3}
 3595 002a 84E80F00 		stmia	r4, {r0, r1, r2, r3}
 3596 002e 14AB     		add	r3, sp, #80
 3597 0030 0FCB     		ldmia	r3, {r0, r1, r2, r3}
 3598 0032 FFF7FEFF 		bl	B3M_Read
 3599              	.LVL190:
 523:Src/B3M.c     **** 	return 0;
 524:Src/B3M.c     **** }
 3600              		.loc 1 524 0
 3601 0036 0020     		movs	r0, #0
 3602 0038 11B0     		add	sp, sp, #68
 3603              	.LCFI297:
 3604              		.cfi_def_cfa_offset 28
ARM GAS  /tmp/cckyA7fG.s 			page 72


 3605              		@ sp needed
 3606 003a BDE83040 		pop	{r4, r5, lr}
 3607              	.LCFI298:
 3608              		.cfi_restore 14
 3609              		.cfi_restore 5
 3610              		.cfi_restore 4
 3611              		.cfi_def_cfa_offset 16
 3612 003e 04B0     		add	sp, sp, #16
 3613              	.LCFI299:
 3614              		.cfi_def_cfa_offset 0
 3615 0040 7047     		bx	lr
 3616              		.cfi_endproc
 3617              	.LFE173:
 3619 0042 00BF     		.section	.text.B3M_InputVoltageMax_Write,"ax",%progbits
 3620              		.align	2
 3621              		.global	B3M_InputVoltageMax_Write
 3622              		.thumb
 3623              		.thumb_func
 3625              	B3M_InputVoltageMax_Write:
 3626              	.LFB174:
 525:Src/B3M.c     **** 
 526:Src/B3M.c     **** uint8_t B3M_InputVoltageMax_Write(UART_HandleTypeDef huart, uint8_t SERVO_ID, uint16_t NEW_INPUT_VO
 527:Src/B3M.c     **** {
 3627              		.loc 1 527 0
 3628              		.cfi_startproc
 3629              		@ args = 72, pretend = 16, frame = 0
 3630              		@ frame_needed = 0, uses_anonymous_args = 0
 3631              	.LVL191:
 3632 0000 84B0     		sub	sp, sp, #16
 3633              	.LCFI300:
 3634              		.cfi_def_cfa_offset 16
 3635 0002 30B5     		push	{r4, r5, lr}
 3636              	.LCFI301:
 3637              		.cfi_def_cfa_offset 28
 3638              		.cfi_offset 4, -28
 3639              		.cfi_offset 5, -24
 3640              		.cfi_offset 14, -20
 3641 0004 91B0     		sub	sp, sp, #68
 3642              	.LCFI302:
 3643              		.cfi_def_cfa_offset 96
 3644 0006 14AC     		add	r4, sp, #80
 3645 0008 84E80F00 		stmia	r4, {r0, r1, r2, r3}
 528:Src/B3M.c     **** 	B3M_Write_2B(huart, SERVO_ID, NEW_INPUT_VOLTAGE_MAX, SYSTEM_INPUT_VOLTAGE_MAX);
 3646              		.loc 1 528 0
 3647 000c 1923     		movs	r3, #25
 3648 000e 0E93     		str	r3, [sp, #56]
 3649 0010 BDF89430 		ldrh	r3, [sp, #148]
 3650 0014 0D93     		str	r3, [sp, #52]
 3651 0016 9DF89030 		ldrb	r3, [sp, #144]	@ zero_extendqisi2
 3652 001a 0C93     		str	r3, [sp, #48]
 3653 001c 6C46     		mov	r4, sp
 3654 001e 18AD     		add	r5, sp, #96
 3655 0020 0FCD     		ldmia	r5!, {r0, r1, r2, r3}
 3656 0022 0FC4     		stmia	r4!, {r0, r1, r2, r3}
 3657 0024 0FCD     		ldmia	r5!, {r0, r1, r2, r3}
 3658 0026 0FC4     		stmia	r4!, {r0, r1, r2, r3}
 3659 0028 95E80F00 		ldmia	r5, {r0, r1, r2, r3}
ARM GAS  /tmp/cckyA7fG.s 			page 73


 3660 002c 84E80F00 		stmia	r4, {r0, r1, r2, r3}
 3661 0030 14AB     		add	r3, sp, #80
 3662 0032 0FCB     		ldmia	r3, {r0, r1, r2, r3}
 3663 0034 FFF7FEFF 		bl	B3M_Write_2B
 3664              	.LVL192:
 529:Src/B3M.c     **** 	return 0;
 530:Src/B3M.c     **** }
 3665              		.loc 1 530 0
 3666 0038 0020     		movs	r0, #0
 3667 003a 11B0     		add	sp, sp, #68
 3668              	.LCFI303:
 3669              		.cfi_def_cfa_offset 28
 3670              		@ sp needed
 3671 003c BDE83040 		pop	{r4, r5, lr}
 3672              	.LCFI304:
 3673              		.cfi_restore 14
 3674              		.cfi_restore 5
 3675              		.cfi_restore 4
 3676              		.cfi_def_cfa_offset 16
 3677 0040 04B0     		add	sp, sp, #16
 3678              	.LCFI305:
 3679              		.cfi_def_cfa_offset 0
 3680 0042 7047     		bx	lr
 3681              		.cfi_endproc
 3682              	.LFE174:
 3684              		.section	.text.B3M_TorqueLimit_Read,"ax",%progbits
 3685              		.align	2
 3686              		.global	B3M_TorqueLimit_Read
 3687              		.thumb
 3688              		.thumb_func
 3690              	B3M_TorqueLimit_Read:
 3691              	.LFB175:
 531:Src/B3M.c     **** 
 532:Src/B3M.c     **** uint8_t B3M_TorqueLimit_Read(UART_HandleTypeDef huart, uint8_t SERVO_ID)
 533:Src/B3M.c     **** {
 3692              		.loc 1 533 0
 3693              		.cfi_startproc
 3694              		@ args = 68, pretend = 16, frame = 0
 3695              		@ frame_needed = 0, uses_anonymous_args = 0
 3696              	.LVL193:
 3697 0000 84B0     		sub	sp, sp, #16
 3698              	.LCFI306:
 3699              		.cfi_def_cfa_offset 16
 3700 0002 30B5     		push	{r4, r5, lr}
 3701              	.LCFI307:
 3702              		.cfi_def_cfa_offset 28
 3703              		.cfi_offset 4, -28
 3704              		.cfi_offset 5, -24
 3705              		.cfi_offset 14, -20
 3706 0004 91B0     		sub	sp, sp, #68
 3707              	.LCFI308:
 3708              		.cfi_def_cfa_offset 96
 3709 0006 14AC     		add	r4, sp, #80
 3710 0008 84E80F00 		stmia	r4, {r0, r1, r2, r3}
 534:Src/B3M.c     **** 	B3M_Read(huart, SERVO_ID, SYSTEM_TORQUE_LIMIT, READ_LENGTH_1B);
 3711              		.loc 1 534 0
 3712 000c 0123     		movs	r3, #1
ARM GAS  /tmp/cckyA7fG.s 			page 74


 3713 000e 0E93     		str	r3, [sp, #56]
 3714 0010 1B23     		movs	r3, #27
 3715 0012 0D93     		str	r3, [sp, #52]
 3716 0014 9DF89030 		ldrb	r3, [sp, #144]	@ zero_extendqisi2
 3717 0018 0C93     		str	r3, [sp, #48]
 3718 001a 6C46     		mov	r4, sp
 3719 001c 18AD     		add	r5, sp, #96
 3720 001e 0FCD     		ldmia	r5!, {r0, r1, r2, r3}
 3721 0020 0FC4     		stmia	r4!, {r0, r1, r2, r3}
 3722 0022 0FCD     		ldmia	r5!, {r0, r1, r2, r3}
 3723 0024 0FC4     		stmia	r4!, {r0, r1, r2, r3}
 3724 0026 95E80F00 		ldmia	r5, {r0, r1, r2, r3}
 3725 002a 84E80F00 		stmia	r4, {r0, r1, r2, r3}
 3726 002e 14AB     		add	r3, sp, #80
 3727 0030 0FCB     		ldmia	r3, {r0, r1, r2, r3}
 3728 0032 FFF7FEFF 		bl	B3M_Read
 3729              	.LVL194:
 535:Src/B3M.c     **** 	return 0;
 536:Src/B3M.c     **** }
 3730              		.loc 1 536 0
 3731 0036 0020     		movs	r0, #0
 3732 0038 11B0     		add	sp, sp, #68
 3733              	.LCFI309:
 3734              		.cfi_def_cfa_offset 28
 3735              		@ sp needed
 3736 003a BDE83040 		pop	{r4, r5, lr}
 3737              	.LCFI310:
 3738              		.cfi_restore 14
 3739              		.cfi_restore 5
 3740              		.cfi_restore 4
 3741              		.cfi_def_cfa_offset 16
 3742 003e 04B0     		add	sp, sp, #16
 3743              	.LCFI311:
 3744              		.cfi_def_cfa_offset 0
 3745 0040 7047     		bx	lr
 3746              		.cfi_endproc
 3747              	.LFE175:
 3749 0042 00BF     		.section	.text.B3M_TorqueLimit_Write,"ax",%progbits
 3750              		.align	2
 3751              		.global	B3M_TorqueLimit_Write
 3752              		.thumb
 3753              		.thumb_func
 3755              	B3M_TorqueLimit_Write:
 3756              	.LFB176:
 537:Src/B3M.c     **** 
 538:Src/B3M.c     **** uint8_t B3M_TorqueLimit_Write(UART_HandleTypeDef huart, uint8_t SERVO_ID, uint8_t NEW_TORQUE_LIMIT)
 539:Src/B3M.c     **** {
 3757              		.loc 1 539 0
 3758              		.cfi_startproc
 3759              		@ args = 72, pretend = 16, frame = 0
 3760              		@ frame_needed = 0, uses_anonymous_args = 0
 3761              	.LVL195:
 3762 0000 84B0     		sub	sp, sp, #16
 3763              	.LCFI312:
 3764              		.cfi_def_cfa_offset 16
 3765 0002 30B5     		push	{r4, r5, lr}
 3766              	.LCFI313:
ARM GAS  /tmp/cckyA7fG.s 			page 75


 3767              		.cfi_def_cfa_offset 28
 3768              		.cfi_offset 4, -28
 3769              		.cfi_offset 5, -24
 3770              		.cfi_offset 14, -20
 3771 0004 91B0     		sub	sp, sp, #68
 3772              	.LCFI314:
 3773              		.cfi_def_cfa_offset 96
 3774 0006 14AC     		add	r4, sp, #80
 3775 0008 84E80F00 		stmia	r4, {r0, r1, r2, r3}
 540:Src/B3M.c     **** 	B3M_Write_1B(huart, SERVO_ID, NEW_TORQUE_LIMIT, SYSTEM_TORQUE_LIMIT);
 3776              		.loc 1 540 0
 3777 000c 1B23     		movs	r3, #27
 3778 000e 0E93     		str	r3, [sp, #56]
 3779 0010 9DF89430 		ldrb	r3, [sp, #148]	@ zero_extendqisi2
 3780 0014 0D93     		str	r3, [sp, #52]
 3781 0016 9DF89030 		ldrb	r3, [sp, #144]	@ zero_extendqisi2
 3782 001a 0C93     		str	r3, [sp, #48]
 3783 001c 6C46     		mov	r4, sp
 3784 001e 18AD     		add	r5, sp, #96
 3785 0020 0FCD     		ldmia	r5!, {r0, r1, r2, r3}
 3786 0022 0FC4     		stmia	r4!, {r0, r1, r2, r3}
 3787 0024 0FCD     		ldmia	r5!, {r0, r1, r2, r3}
 3788 0026 0FC4     		stmia	r4!, {r0, r1, r2, r3}
 3789 0028 95E80F00 		ldmia	r5, {r0, r1, r2, r3}
 3790 002c 84E80F00 		stmia	r4, {r0, r1, r2, r3}
 3791 0030 14AB     		add	r3, sp, #80
 3792 0032 0FCB     		ldmia	r3, {r0, r1, r2, r3}
 3793 0034 FFF7FEFF 		bl	B3M_Write_1B
 3794              	.LVL196:
 541:Src/B3M.c     **** 	return 0;
 542:Src/B3M.c     **** }
 3795              		.loc 1 542 0
 3796 0038 0020     		movs	r0, #0
 3797 003a 11B0     		add	sp, sp, #68
 3798              	.LCFI315:
 3799              		.cfi_def_cfa_offset 28
 3800              		@ sp needed
 3801 003c BDE83040 		pop	{r4, r5, lr}
 3802              	.LCFI316:
 3803              		.cfi_restore 14
 3804              		.cfi_restore 5
 3805              		.cfi_restore 4
 3806              		.cfi_def_cfa_offset 16
 3807 0040 04B0     		add	sp, sp, #16
 3808              	.LCFI317:
 3809              		.cfi_def_cfa_offset 0
 3810 0042 7047     		bx	lr
 3811              		.cfi_endproc
 3812              	.LFE176:
 3814              		.section	.text.B3M_DeadBandWidth_Read,"ax",%progbits
 3815              		.align	2
 3816              		.global	B3M_DeadBandWidth_Read
 3817              		.thumb
 3818              		.thumb_func
 3820              	B3M_DeadBandWidth_Read:
 3821              	.LFB177:
 543:Src/B3M.c     **** 
ARM GAS  /tmp/cckyA7fG.s 			page 76


 544:Src/B3M.c     **** uint8_t B3M_DeadBandWidth_Read(UART_HandleTypeDef huart, uint8_t SERVO_ID)
 545:Src/B3M.c     **** {
 3822              		.loc 1 545 0
 3823              		.cfi_startproc
 3824              		@ args = 68, pretend = 16, frame = 0
 3825              		@ frame_needed = 0, uses_anonymous_args = 0
 3826              	.LVL197:
 3827 0000 84B0     		sub	sp, sp, #16
 3828              	.LCFI318:
 3829              		.cfi_def_cfa_offset 16
 3830 0002 30B5     		push	{r4, r5, lr}
 3831              	.LCFI319:
 3832              		.cfi_def_cfa_offset 28
 3833              		.cfi_offset 4, -28
 3834              		.cfi_offset 5, -24
 3835              		.cfi_offset 14, -20
 3836 0004 91B0     		sub	sp, sp, #68
 3837              	.LCFI320:
 3838              		.cfi_def_cfa_offset 96
 3839 0006 14AC     		add	r4, sp, #80
 3840 0008 84E80F00 		stmia	r4, {r0, r1, r2, r3}
 546:Src/B3M.c     **** 	B3M_Read(huart, SERVO_ID, SYSTEM_DEADBAND_WIDTH, READ_LENGTH_2B);
 3841              		.loc 1 546 0
 3842 000c 0223     		movs	r3, #2
 3843 000e 0E93     		str	r3, [sp, #56]
 3844 0010 1C23     		movs	r3, #28
 3845 0012 0D93     		str	r3, [sp, #52]
 3846 0014 9DF89030 		ldrb	r3, [sp, #144]	@ zero_extendqisi2
 3847 0018 0C93     		str	r3, [sp, #48]
 3848 001a 6C46     		mov	r4, sp
 3849 001c 18AD     		add	r5, sp, #96
 3850 001e 0FCD     		ldmia	r5!, {r0, r1, r2, r3}
 3851 0020 0FC4     		stmia	r4!, {r0, r1, r2, r3}
 3852 0022 0FCD     		ldmia	r5!, {r0, r1, r2, r3}
 3853 0024 0FC4     		stmia	r4!, {r0, r1, r2, r3}
 3854 0026 95E80F00 		ldmia	r5, {r0, r1, r2, r3}
 3855 002a 84E80F00 		stmia	r4, {r0, r1, r2, r3}
 3856 002e 14AB     		add	r3, sp, #80
 3857 0030 0FCB     		ldmia	r3, {r0, r1, r2, r3}
 3858 0032 FFF7FEFF 		bl	B3M_Read
 3859              	.LVL198:
 547:Src/B3M.c     **** 	return 0;
 548:Src/B3M.c     **** }
 3860              		.loc 1 548 0
 3861 0036 0020     		movs	r0, #0
 3862 0038 11B0     		add	sp, sp, #68
 3863              	.LCFI321:
 3864              		.cfi_def_cfa_offset 28
 3865              		@ sp needed
 3866 003a BDE83040 		pop	{r4, r5, lr}
 3867              	.LCFI322:
 3868              		.cfi_restore 14
 3869              		.cfi_restore 5
 3870              		.cfi_restore 4
 3871              		.cfi_def_cfa_offset 16
 3872 003e 04B0     		add	sp, sp, #16
 3873              	.LCFI323:
ARM GAS  /tmp/cckyA7fG.s 			page 77


 3874              		.cfi_def_cfa_offset 0
 3875 0040 7047     		bx	lr
 3876              		.cfi_endproc
 3877              	.LFE177:
 3879 0042 00BF     		.section	.text.B3M_DeadBandWidth_Write,"ax",%progbits
 3880              		.align	2
 3881              		.global	B3M_DeadBandWidth_Write
 3882              		.thumb
 3883              		.thumb_func
 3885              	B3M_DeadBandWidth_Write:
 3886              	.LFB178:
 549:Src/B3M.c     **** 
 550:Src/B3M.c     **** uint8_t B3M_DeadBandWidth_Write(UART_HandleTypeDef huart, uint8_t SERVO_ID, uint16_t NEW_DEADBAND_W
 551:Src/B3M.c     **** {
 3887              		.loc 1 551 0
 3888              		.cfi_startproc
 3889              		@ args = 72, pretend = 16, frame = 0
 3890              		@ frame_needed = 0, uses_anonymous_args = 0
 3891              	.LVL199:
 3892 0000 84B0     		sub	sp, sp, #16
 3893              	.LCFI324:
 3894              		.cfi_def_cfa_offset 16
 3895 0002 30B5     		push	{r4, r5, lr}
 3896              	.LCFI325:
 3897              		.cfi_def_cfa_offset 28
 3898              		.cfi_offset 4, -28
 3899              		.cfi_offset 5, -24
 3900              		.cfi_offset 14, -20
 3901 0004 91B0     		sub	sp, sp, #68
 3902              	.LCFI326:
 3903              		.cfi_def_cfa_offset 96
 3904 0006 14AC     		add	r4, sp, #80
 3905 0008 84E80F00 		stmia	r4, {r0, r1, r2, r3}
 552:Src/B3M.c     **** 	B3M_Write_2B(huart, SERVO_ID, NEW_DEADBAND_WIDTH, SYSTEM_DEADBAND_WIDTH);
 3906              		.loc 1 552 0
 3907 000c 1C23     		movs	r3, #28
 3908 000e 0E93     		str	r3, [sp, #56]
 3909 0010 BDF89430 		ldrh	r3, [sp, #148]
 3910 0014 0D93     		str	r3, [sp, #52]
 3911 0016 9DF89030 		ldrb	r3, [sp, #144]	@ zero_extendqisi2
 3912 001a 0C93     		str	r3, [sp, #48]
 3913 001c 6C46     		mov	r4, sp
 3914 001e 18AD     		add	r5, sp, #96
 3915 0020 0FCD     		ldmia	r5!, {r0, r1, r2, r3}
 3916 0022 0FC4     		stmia	r4!, {r0, r1, r2, r3}
 3917 0024 0FCD     		ldmia	r5!, {r0, r1, r2, r3}
 3918 0026 0FC4     		stmia	r4!, {r0, r1, r2, r3}
 3919 0028 95E80F00 		ldmia	r5, {r0, r1, r2, r3}
 3920 002c 84E80F00 		stmia	r4, {r0, r1, r2, r3}
 3921 0030 14AB     		add	r3, sp, #80
 3922 0032 0FCB     		ldmia	r3, {r0, r1, r2, r3}
 3923 0034 FFF7FEFF 		bl	B3M_Write_2B
 3924              	.LVL200:
 553:Src/B3M.c     **** 	return 0;
 554:Src/B3M.c     **** }
 3925              		.loc 1 554 0
 3926 0038 0020     		movs	r0, #0
ARM GAS  /tmp/cckyA7fG.s 			page 78


 3927 003a 11B0     		add	sp, sp, #68
 3928              	.LCFI327:
 3929              		.cfi_def_cfa_offset 28
 3930              		@ sp needed
 3931 003c BDE83040 		pop	{r4, r5, lr}
 3932              	.LCFI328:
 3933              		.cfi_restore 14
 3934              		.cfi_restore 5
 3935              		.cfi_restore 4
 3936              		.cfi_def_cfa_offset 16
 3937 0040 04B0     		add	sp, sp, #16
 3938              	.LCFI329:
 3939              		.cfi_def_cfa_offset 0
 3940 0042 7047     		bx	lr
 3941              		.cfi_endproc
 3942              	.LFE178:
 3944              		.section	.text.B3M_MotorCWRatio_Read,"ax",%progbits
 3945              		.align	2
 3946              		.global	B3M_MotorCWRatio_Read
 3947              		.thumb
 3948              		.thumb_func
 3950              	B3M_MotorCWRatio_Read:
 3951              	.LFB179:
 555:Src/B3M.c     **** 
 556:Src/B3M.c     **** uint8_t B3M_MotorCWRatio_Read(UART_HandleTypeDef huart, uint8_t SERVO_ID)
 557:Src/B3M.c     **** {
 3952              		.loc 1 557 0
 3953              		.cfi_startproc
 3954              		@ args = 68, pretend = 16, frame = 0
 3955              		@ frame_needed = 0, uses_anonymous_args = 0
 3956              	.LVL201:
 3957 0000 84B0     		sub	sp, sp, #16
 3958              	.LCFI330:
 3959              		.cfi_def_cfa_offset 16
 3960 0002 30B5     		push	{r4, r5, lr}
 3961              	.LCFI331:
 3962              		.cfi_def_cfa_offset 28
 3963              		.cfi_offset 4, -28
 3964              		.cfi_offset 5, -24
 3965              		.cfi_offset 14, -20
 3966 0004 91B0     		sub	sp, sp, #68
 3967              	.LCFI332:
 3968              		.cfi_def_cfa_offset 96
 3969 0006 14AC     		add	r4, sp, #80
 3970 0008 84E80F00 		stmia	r4, {r0, r1, r2, r3}
 558:Src/B3M.c     **** 	B3M_Read(huart, SERVO_ID, SYSTEM_MOTOR_CW_RATIO, READ_LENGTH_1B);
 3971              		.loc 1 558 0
 3972 000c 0123     		movs	r3, #1
 3973 000e 0E93     		str	r3, [sp, #56]
 3974 0010 2223     		movs	r3, #34
 3975 0012 0D93     		str	r3, [sp, #52]
 3976 0014 9DF89030 		ldrb	r3, [sp, #144]	@ zero_extendqisi2
 3977 0018 0C93     		str	r3, [sp, #48]
 3978 001a 6C46     		mov	r4, sp
 3979 001c 18AD     		add	r5, sp, #96
 3980 001e 0FCD     		ldmia	r5!, {r0, r1, r2, r3}
 3981 0020 0FC4     		stmia	r4!, {r0, r1, r2, r3}
ARM GAS  /tmp/cckyA7fG.s 			page 79


 3982 0022 0FCD     		ldmia	r5!, {r0, r1, r2, r3}
 3983 0024 0FC4     		stmia	r4!, {r0, r1, r2, r3}
 3984 0026 95E80F00 		ldmia	r5, {r0, r1, r2, r3}
 3985 002a 84E80F00 		stmia	r4, {r0, r1, r2, r3}
 3986 002e 14AB     		add	r3, sp, #80
 3987 0030 0FCB     		ldmia	r3, {r0, r1, r2, r3}
 3988 0032 FFF7FEFF 		bl	B3M_Read
 3989              	.LVL202:
 559:Src/B3M.c     **** 	return 0;
 560:Src/B3M.c     **** }
 3990              		.loc 1 560 0
 3991 0036 0020     		movs	r0, #0
 3992 0038 11B0     		add	sp, sp, #68
 3993              	.LCFI333:
 3994              		.cfi_def_cfa_offset 28
 3995              		@ sp needed
 3996 003a BDE83040 		pop	{r4, r5, lr}
 3997              	.LCFI334:
 3998              		.cfi_restore 14
 3999              		.cfi_restore 5
 4000              		.cfi_restore 4
 4001              		.cfi_def_cfa_offset 16
 4002 003e 04B0     		add	sp, sp, #16
 4003              	.LCFI335:
 4004              		.cfi_def_cfa_offset 0
 4005 0040 7047     		bx	lr
 4006              		.cfi_endproc
 4007              	.LFE179:
 4009 0042 00BF     		.section	.text.B3M_MotorCWRatio_Write,"ax",%progbits
 4010              		.align	2
 4011              		.global	B3M_MotorCWRatio_Write
 4012              		.thumb
 4013              		.thumb_func
 4015              	B3M_MotorCWRatio_Write:
 4016              	.LFB180:
 561:Src/B3M.c     **** 
 562:Src/B3M.c     **** uint8_t B3M_MotorCWRatio_Write(UART_HandleTypeDef huart, uint8_t SERVO_ID, uint8_t NEW_MOTOR_CW_RAT
 563:Src/B3M.c     **** {
 4017              		.loc 1 563 0
 4018              		.cfi_startproc
 4019              		@ args = 72, pretend = 16, frame = 0
 4020              		@ frame_needed = 0, uses_anonymous_args = 0
 4021              	.LVL203:
 4022 0000 84B0     		sub	sp, sp, #16
 4023              	.LCFI336:
 4024              		.cfi_def_cfa_offset 16
 4025 0002 30B5     		push	{r4, r5, lr}
 4026              	.LCFI337:
 4027              		.cfi_def_cfa_offset 28
 4028              		.cfi_offset 4, -28
 4029              		.cfi_offset 5, -24
 4030              		.cfi_offset 14, -20
 4031 0004 91B0     		sub	sp, sp, #68
 4032              	.LCFI338:
 4033              		.cfi_def_cfa_offset 96
 4034 0006 14AC     		add	r4, sp, #80
 4035 0008 84E80F00 		stmia	r4, {r0, r1, r2, r3}
ARM GAS  /tmp/cckyA7fG.s 			page 80


 564:Src/B3M.c     **** 	B3M_Write_1B(huart, SERVO_ID, NEW_MOTOR_CW_RATIO, SYSTEM_MOTOR_CW_RATIO);
 4036              		.loc 1 564 0
 4037 000c 2223     		movs	r3, #34
 4038 000e 0E93     		str	r3, [sp, #56]
 4039 0010 9DF89430 		ldrb	r3, [sp, #148]	@ zero_extendqisi2
 4040 0014 0D93     		str	r3, [sp, #52]
 4041 0016 9DF89030 		ldrb	r3, [sp, #144]	@ zero_extendqisi2
 4042 001a 0C93     		str	r3, [sp, #48]
 4043 001c 6C46     		mov	r4, sp
 4044 001e 18AD     		add	r5, sp, #96
 4045 0020 0FCD     		ldmia	r5!, {r0, r1, r2, r3}
 4046 0022 0FC4     		stmia	r4!, {r0, r1, r2, r3}
 4047 0024 0FCD     		ldmia	r5!, {r0, r1, r2, r3}
 4048 0026 0FC4     		stmia	r4!, {r0, r1, r2, r3}
 4049 0028 95E80F00 		ldmia	r5, {r0, r1, r2, r3}
 4050 002c 84E80F00 		stmia	r4, {r0, r1, r2, r3}
 4051 0030 14AB     		add	r3, sp, #80
 4052 0032 0FCB     		ldmia	r3, {r0, r1, r2, r3}
 4053 0034 FFF7FEFF 		bl	B3M_Write_1B
 4054              	.LVL204:
 565:Src/B3M.c     **** 	return 0;
 566:Src/B3M.c     **** }
 4055              		.loc 1 566 0
 4056 0038 0020     		movs	r0, #0
 4057 003a 11B0     		add	sp, sp, #68
 4058              	.LCFI339:
 4059              		.cfi_def_cfa_offset 28
 4060              		@ sp needed
 4061 003c BDE83040 		pop	{r4, r5, lr}
 4062              	.LCFI340:
 4063              		.cfi_restore 14
 4064              		.cfi_restore 5
 4065              		.cfi_restore 4
 4066              		.cfi_def_cfa_offset 16
 4067 0040 04B0     		add	sp, sp, #16
 4068              	.LCFI341:
 4069              		.cfi_def_cfa_offset 0
 4070 0042 7047     		bx	lr
 4071              		.cfi_endproc
 4072              	.LFE180:
 4074              		.section	.text.B3M_MotorCCWRatio_Read,"ax",%progbits
 4075              		.align	2
 4076              		.global	B3M_MotorCCWRatio_Read
 4077              		.thumb
 4078              		.thumb_func
 4080              	B3M_MotorCCWRatio_Read:
 4081              	.LFB181:
 567:Src/B3M.c     **** 
 568:Src/B3M.c     **** uint8_t B3M_MotorCCWRatio_Read(UART_HandleTypeDef huart, uint8_t SERVO_ID)
 569:Src/B3M.c     **** {
 4082              		.loc 1 569 0
 4083              		.cfi_startproc
 4084              		@ args = 68, pretend = 16, frame = 0
 4085              		@ frame_needed = 0, uses_anonymous_args = 0
 4086              	.LVL205:
 4087 0000 84B0     		sub	sp, sp, #16
 4088              	.LCFI342:
ARM GAS  /tmp/cckyA7fG.s 			page 81


 4089              		.cfi_def_cfa_offset 16
 4090 0002 30B5     		push	{r4, r5, lr}
 4091              	.LCFI343:
 4092              		.cfi_def_cfa_offset 28
 4093              		.cfi_offset 4, -28
 4094              		.cfi_offset 5, -24
 4095              		.cfi_offset 14, -20
 4096 0004 91B0     		sub	sp, sp, #68
 4097              	.LCFI344:
 4098              		.cfi_def_cfa_offset 96
 4099 0006 14AC     		add	r4, sp, #80
 4100 0008 84E80F00 		stmia	r4, {r0, r1, r2, r3}
 570:Src/B3M.c     **** 	B3M_Read(huart, SERVO_ID, SYSTEM_MOTOR_CCW_RATIO, READ_LENGTH_1B);
 4101              		.loc 1 570 0
 4102 000c 0123     		movs	r3, #1
 4103 000e 0E93     		str	r3, [sp, #56]
 4104 0010 2323     		movs	r3, #35
 4105 0012 0D93     		str	r3, [sp, #52]
 4106 0014 9DF89030 		ldrb	r3, [sp, #144]	@ zero_extendqisi2
 4107 0018 0C93     		str	r3, [sp, #48]
 4108 001a 6C46     		mov	r4, sp
 4109 001c 18AD     		add	r5, sp, #96
 4110 001e 0FCD     		ldmia	r5!, {r0, r1, r2, r3}
 4111 0020 0FC4     		stmia	r4!, {r0, r1, r2, r3}
 4112 0022 0FCD     		ldmia	r5!, {r0, r1, r2, r3}
 4113 0024 0FC4     		stmia	r4!, {r0, r1, r2, r3}
 4114 0026 95E80F00 		ldmia	r5, {r0, r1, r2, r3}
 4115 002a 84E80F00 		stmia	r4, {r0, r1, r2, r3}
 4116 002e 14AB     		add	r3, sp, #80
 4117 0030 0FCB     		ldmia	r3, {r0, r1, r2, r3}
 4118 0032 FFF7FEFF 		bl	B3M_Read
 4119              	.LVL206:
 571:Src/B3M.c     **** 	return 0;
 572:Src/B3M.c     **** }
 4120              		.loc 1 572 0
 4121 0036 0020     		movs	r0, #0
 4122 0038 11B0     		add	sp, sp, #68
 4123              	.LCFI345:
 4124              		.cfi_def_cfa_offset 28
 4125              		@ sp needed
 4126 003a BDE83040 		pop	{r4, r5, lr}
 4127              	.LCFI346:
 4128              		.cfi_restore 14
 4129              		.cfi_restore 5
 4130              		.cfi_restore 4
 4131              		.cfi_def_cfa_offset 16
 4132 003e 04B0     		add	sp, sp, #16
 4133              	.LCFI347:
 4134              		.cfi_def_cfa_offset 0
 4135 0040 7047     		bx	lr
 4136              		.cfi_endproc
 4137              	.LFE181:
 4139 0042 00BF     		.section	.text.B3M_MotorCCWRatio_Write,"ax",%progbits
 4140              		.align	2
 4141              		.global	B3M_MotorCCWRatio_Write
 4142              		.thumb
 4143              		.thumb_func
ARM GAS  /tmp/cckyA7fG.s 			page 82


 4145              	B3M_MotorCCWRatio_Write:
 4146              	.LFB182:
 573:Src/B3M.c     **** 
 574:Src/B3M.c     **** uint8_t B3M_MotorCCWRatio_Write(UART_HandleTypeDef huart, uint8_t SERVO_ID, uint8_t NEW_MOTOR_CCW_R
 575:Src/B3M.c     **** {
 4147              		.loc 1 575 0
 4148              		.cfi_startproc
 4149              		@ args = 72, pretend = 16, frame = 0
 4150              		@ frame_needed = 0, uses_anonymous_args = 0
 4151              	.LVL207:
 4152 0000 84B0     		sub	sp, sp, #16
 4153              	.LCFI348:
 4154              		.cfi_def_cfa_offset 16
 4155 0002 30B5     		push	{r4, r5, lr}
 4156              	.LCFI349:
 4157              		.cfi_def_cfa_offset 28
 4158              		.cfi_offset 4, -28
 4159              		.cfi_offset 5, -24
 4160              		.cfi_offset 14, -20
 4161 0004 91B0     		sub	sp, sp, #68
 4162              	.LCFI350:
 4163              		.cfi_def_cfa_offset 96
 4164 0006 14AC     		add	r4, sp, #80
 4165 0008 84E80F00 		stmia	r4, {r0, r1, r2, r3}
 576:Src/B3M.c     **** 	B3M_Write_1B(huart, SERVO_ID, NEW_MOTOR_CCW_RATIO, SYSTEM_MOTOR_CCW_RATIO);
 4166              		.loc 1 576 0
 4167 000c 2323     		movs	r3, #35
 4168 000e 0E93     		str	r3, [sp, #56]
 4169 0010 9DF89430 		ldrb	r3, [sp, #148]	@ zero_extendqisi2
 4170 0014 0D93     		str	r3, [sp, #52]
 4171 0016 9DF89030 		ldrb	r3, [sp, #144]	@ zero_extendqisi2
 4172 001a 0C93     		str	r3, [sp, #48]
 4173 001c 6C46     		mov	r4, sp
 4174 001e 18AD     		add	r5, sp, #96
 4175 0020 0FCD     		ldmia	r5!, {r0, r1, r2, r3}
 4176 0022 0FC4     		stmia	r4!, {r0, r1, r2, r3}
 4177 0024 0FCD     		ldmia	r5!, {r0, r1, r2, r3}
 4178 0026 0FC4     		stmia	r4!, {r0, r1, r2, r3}
 4179 0028 95E80F00 		ldmia	r5, {r0, r1, r2, r3}
 4180 002c 84E80F00 		stmia	r4, {r0, r1, r2, r3}
 4181 0030 14AB     		add	r3, sp, #80
 4182 0032 0FCB     		ldmia	r3, {r0, r1, r2, r3}
 4183 0034 FFF7FEFF 		bl	B3M_Write_1B
 4184              	.LVL208:
 577:Src/B3M.c     **** 	return 0;
 578:Src/B3M.c     **** }
 4185              		.loc 1 578 0
 4186 0038 0020     		movs	r0, #0
 4187 003a 11B0     		add	sp, sp, #68
 4188              	.LCFI351:
 4189              		.cfi_def_cfa_offset 28
 4190              		@ sp needed
 4191 003c BDE83040 		pop	{r4, r5, lr}
 4192              	.LCFI352:
 4193              		.cfi_restore 14
 4194              		.cfi_restore 5
 4195              		.cfi_restore 4
ARM GAS  /tmp/cckyA7fG.s 			page 83


 4196              		.cfi_def_cfa_offset 16
 4197 0040 04B0     		add	sp, sp, #16
 4198              	.LCFI353:
 4199              		.cfi_def_cfa_offset 0
 4200 0042 7047     		bx	lr
 4201              		.cfi_endproc
 4202              	.LFE182:
 4204              		.section	.text.B3M_ServoOption_Read,"ax",%progbits
 4205              		.align	2
 4206              		.global	B3M_ServoOption_Read
 4207              		.thumb
 4208              		.thumb_func
 4210              	B3M_ServoOption_Read:
 4211              	.LFB183:
 579:Src/B3M.c     **** 
 580:Src/B3M.c     **** 
 581:Src/B3M.c     **** /** Servo Parameter Area Address'
 582:Src/B3M.c     **** */
 583:Src/B3M.c     **** uint8_t B3M_ServoOption_Read(UART_HandleTypeDef huart, uint8_t SERVO_ID)
 584:Src/B3M.c     **** {
 4212              		.loc 1 584 0
 4213              		.cfi_startproc
 4214              		@ args = 68, pretend = 16, frame = 0
 4215              		@ frame_needed = 0, uses_anonymous_args = 0
 4216              	.LVL209:
 4217 0000 84B0     		sub	sp, sp, #16
 4218              	.LCFI354:
 4219              		.cfi_def_cfa_offset 16
 4220 0002 30B5     		push	{r4, r5, lr}
 4221              	.LCFI355:
 4222              		.cfi_def_cfa_offset 28
 4223              		.cfi_offset 4, -28
 4224              		.cfi_offset 5, -24
 4225              		.cfi_offset 14, -20
 4226 0004 91B0     		sub	sp, sp, #68
 4227              	.LCFI356:
 4228              		.cfi_def_cfa_offset 96
 4229 0006 14AC     		add	r4, sp, #80
 4230 0008 84E80F00 		stmia	r4, {r0, r1, r2, r3}
 585:Src/B3M.c     **** 	B3M_Read(huart, SERVO_ID, SERVO_SERVO_OPTION, READ_LENGTH_2B);
 4231              		.loc 1 585 0
 4232 000c 0223     		movs	r3, #2
 4233 000e 0E93     		str	r3, [sp, #56]
 4234 0010 2723     		movs	r3, #39
 4235 0012 0D93     		str	r3, [sp, #52]
 4236 0014 9DF89030 		ldrb	r3, [sp, #144]	@ zero_extendqisi2
 4237 0018 0C93     		str	r3, [sp, #48]
 4238 001a 6C46     		mov	r4, sp
 4239 001c 18AD     		add	r5, sp, #96
 4240 001e 0FCD     		ldmia	r5!, {r0, r1, r2, r3}
 4241 0020 0FC4     		stmia	r4!, {r0, r1, r2, r3}
 4242 0022 0FCD     		ldmia	r5!, {r0, r1, r2, r3}
 4243 0024 0FC4     		stmia	r4!, {r0, r1, r2, r3}
 4244 0026 95E80F00 		ldmia	r5, {r0, r1, r2, r3}
 4245 002a 84E80F00 		stmia	r4, {r0, r1, r2, r3}
 4246 002e 14AB     		add	r3, sp, #80
 4247 0030 0FCB     		ldmia	r3, {r0, r1, r2, r3}
ARM GAS  /tmp/cckyA7fG.s 			page 84


 4248 0032 FFF7FEFF 		bl	B3M_Read
 4249              	.LVL210:
 586:Src/B3M.c     **** 	return 0;
 587:Src/B3M.c     **** }
 4250              		.loc 1 587 0
 4251 0036 0020     		movs	r0, #0
 4252 0038 11B0     		add	sp, sp, #68
 4253              	.LCFI357:
 4254              		.cfi_def_cfa_offset 28
 4255              		@ sp needed
 4256 003a BDE83040 		pop	{r4, r5, lr}
 4257              	.LCFI358:
 4258              		.cfi_restore 14
 4259              		.cfi_restore 5
 4260              		.cfi_restore 4
 4261              		.cfi_def_cfa_offset 16
 4262 003e 04B0     		add	sp, sp, #16
 4263              	.LCFI359:
 4264              		.cfi_def_cfa_offset 0
 4265 0040 7047     		bx	lr
 4266              		.cfi_endproc
 4267              	.LFE183:
 4269 0042 00BF     		.section	.text.B3M_ControlLow_Read,"ax",%progbits
 4270              		.align	2
 4271              		.global	B3M_ControlLow_Read
 4272              		.thumb
 4273              		.thumb_func
 4275              	B3M_ControlLow_Read:
 4276              	.LFB184:
 588:Src/B3M.c     **** 
 589:Src/B3M.c     **** //uint8_t B3M_ServoOption_Write(UART_HandleTypeDef huart, uint8_t SERVO_ID,  uint8_t NEW_SERVO_OPTI
 590:Src/B3M.c     **** //{
 591:Src/B3M.c     **** //	B3M_Write_2B(huart, SERVO_ID, NEW_SERVO_OPTION, SERVO_SERVO_OPTION);
 592:Src/B3M.c     **** //}
 593:Src/B3M.c     **** //
 594:Src/B3M.c     **** //uint8_t B3M_ServoMode_Read(UART_HandleTypeDef huart, uint8_t SERVO_ID);
 595:Src/B3M.c     **** //uint8_t B3M_ServoMode_Write(UART_HandleTypeDef huart, uint8_t SERVO_ID,  uint8_t NEW_SERVO_MODE);
 596:Src/B3M.c     **** //uint8_t B3M_TorqueOn_Read(UART_HandleTypeDef huart, uint8_t SERVO_ID);
 597:Src/B3M.c     **** //uint8_t B3M_TorqueOn_Write(UART_HandleTypeDef huart, uint8_t SERVO_ID,  uint8_t NEW_TORQUE_ON);
 598:Src/B3M.c     **** //uint8_t B3M_RunMode_Read(UART_HandleTypeDef huart, uint8_t SERVO_ID);
 599:Src/B3M.c     **** //uint8_t B3M_RunMode_Write(UART_HandleTypeDef huart, uint8_t SERVO_ID,  uint8_t NEW_RUN_MODE);
 600:Src/B3M.c     **** //uint8_t B3M_DesiredPosition_Read(UART_HandleTypeDef huart, uint8_t SERVO_ID);
 601:Src/B3M.c     **** //uint8_t B3M_DesiredPosition_Write(UART_HandleTypeDef huart, uint8_t SERVO_ID,  uint8_t NEW_DESIRE
 602:Src/B3M.c     **** //uint8_t B3M_CurrentPosition_ReadOnly(UART_HandleTypeDef huart, uint8_t SERVO_ID);
 603:Src/B3M.c     **** //uint8_t B3M_PreviousPosition_ReadOnly(UART_HandleTypeDef huart, uint8_t SERVO_ID);
 604:Src/B3M.c     **** //uint8_t B3M_DisiredVelocity_Read(UART_HandleTypeDef huart, uint8_t SERVO_ID);
 605:Src/B3M.c     **** //uint8_t B3M_DisiredVelocity_Write(UART_HandleTypeDef huart, uint8_t SERVO_ID,  uint8_t NEW_DESIRE
 606:Src/B3M.c     **** //uint8_t B3M_CurrentVelocity_ReadOnly(UART_HandleTypeDef huart, uint8_t SERVO_ID);
 607:Src/B3M.c     **** //uint8_t B3M_PreviousVelocity_ReadOnly(UART_HandleTypeDef huart, uint8_t SERVO_ID);
 608:Src/B3M.c     **** //uint8_t B3M_DesiredTime_Read(UART_HandleTypeDef huart, uint8_t SERVO_ID);
 609:Src/B3M.c     **** //uint8_t B3M_DesiredTime_Write(UART_HandleTypeDef huart, uint8_t SERVO_ID,  uint8_t NEW_DESIRED_TI
 610:Src/B3M.c     **** //uint8_t B3M_RunningTime_ReadOnly(UART_HandleTypeDef huart, uint8_t SERVO_ID);
 611:Src/B3M.c     **** //uint8_t B3M_WorkingTime_ReadOnly(UART_HandleTypeDef huart, uint8_t SERVO_ID);
 612:Src/B3M.c     **** //uint8_t B3M_DesiredTorque_Read(UART_HandleTypeDef huart, uint8_t SERVO_ID);
 613:Src/B3M.c     **** //uint8_t B3M_DesiredTorque_Write(UART_HandleTypeDef huart, uint8_t SERVO_ID,  uint8_t NEW_DESIRED_
 614:Src/B3M.c     **** //uint8_t B3M_SystemClock_ReadOnly(UART_HandleTypeDef huart, uint8_t SERVO_ID);
 615:Src/B3M.c     **** //uint8_t B3M_SamplingTime_ReadOnly(UART_HandleTypeDef huart, uint8_t SERVO_ID);
ARM GAS  /tmp/cckyA7fG.s 			page 85


 616:Src/B3M.c     **** //uint8_t B3M_MCUTemp_ReadOnly(UART_HandleTypeDef huart, uint8_t SERVO_ID);
 617:Src/B3M.c     **** //uint8_t B3M_MotorTemp_ReadOnly(UART_HandleTypeDef huart, uint8_t SERVO_ID);
 618:Src/B3M.c     **** //uint8_t B3M_InputVoltage_ReadOnly(UART_HandleTypeDef huart, uint8_t SERVO_ID);
 619:Src/B3M.c     **** //uint8_t B3M_PWMDuty_Read(UART_HandleTypeDef huart, uint8_t SERVO_ID);
 620:Src/B3M.c     **** //uint8_t B3M_PWMDuty_Write(UART_HandleTypeDef huart, uint8_t SERVO_ID,  uint8_t NEW_PWM_DUTY);
 621:Src/B3M.c     **** //uint8_t B3M_PWMFrequency_Read(UART_HandleTypeDef huart, uint8_t SERVO_ID);
 622:Src/B3M.c     **** //uint8_t B3M_PWMFrequency_Write(UART_HandleTypeDef huart, uint8_t SERVO_ID,  uint8_t NEW_PWM_FREQU
 623:Src/B3M.c     **** //uint8_t B3M_EncoderValue_ReadOnly(UART_HandleTypeDef huart, uint8_t SERVO_ID);
 624:Src/B3M.c     **** //uint8_t B3M_EncoderCount_Read(UART_HandleTypeDef huart, uint8_t SERVO_ID);
 625:Src/B3M.c     **** //uint8_t B3M_EncoderCount_Write(UART_HandleTypeDef huart, uint8_t SERVO_ID,  uint8_t NEW_ENCODER_C
 626:Src/B3M.c     **** //uint8_t B3M_HallICState_ReadOnly(UART_HandleTypeDef huart, uint8_t SERVO_ID);
 627:Src/B3M.c     **** 
 628:Src/B3M.c     **** /** Control Parameter Area Address'
 629:Src/B3M.c     **** */
 630:Src/B3M.c     **** uint8_t B3M_ControlLow_Read(UART_HandleTypeDef huart, uint8_t SERVO_ID)
 631:Src/B3M.c     **** {
 4277              		.loc 1 631 0
 4278              		.cfi_startproc
 4279              		@ args = 68, pretend = 16, frame = 0
 4280              		@ frame_needed = 0, uses_anonymous_args = 0
 4281              	.LVL211:
 4282 0000 84B0     		sub	sp, sp, #16
 4283              	.LCFI360:
 4284              		.cfi_def_cfa_offset 16
 4285 0002 30B5     		push	{r4, r5, lr}
 4286              	.LCFI361:
 4287              		.cfi_def_cfa_offset 28
 4288              		.cfi_offset 4, -28
 4289              		.cfi_offset 5, -24
 4290              		.cfi_offset 14, -20
 4291 0004 91B0     		sub	sp, sp, #68
 4292              	.LCFI362:
 4293              		.cfi_def_cfa_offset 96
 4294 0006 14AC     		add	r4, sp, #80
 4295 0008 84E80F00 		stmia	r4, {r0, r1, r2, r3}
 632:Src/B3M.c     **** 	B3M_Read(huart, SERVO_ID, CONTROL_CONTROL_LOW, READ_LENGTH_2B);
 4296              		.loc 1 632 0
 4297 000c 0223     		movs	r3, #2
 4298 000e 0E93     		str	r3, [sp, #56]
 4299 0010 5C23     		movs	r3, #92
 4300 0012 0D93     		str	r3, [sp, #52]
 4301 0014 9DF89030 		ldrb	r3, [sp, #144]	@ zero_extendqisi2
 4302 0018 0C93     		str	r3, [sp, #48]
 4303 001a 6C46     		mov	r4, sp
 4304 001c 18AD     		add	r5, sp, #96
 4305 001e 0FCD     		ldmia	r5!, {r0, r1, r2, r3}
 4306 0020 0FC4     		stmia	r4!, {r0, r1, r2, r3}
 4307 0022 0FCD     		ldmia	r5!, {r0, r1, r2, r3}
 4308 0024 0FC4     		stmia	r4!, {r0, r1, r2, r3}
 4309 0026 95E80F00 		ldmia	r5, {r0, r1, r2, r3}
 4310 002a 84E80F00 		stmia	r4, {r0, r1, r2, r3}
 4311 002e 14AB     		add	r3, sp, #80
 4312 0030 0FCB     		ldmia	r3, {r0, r1, r2, r3}
 4313 0032 FFF7FEFF 		bl	B3M_Read
 4314              	.LVL212:
 633:Src/B3M.c     **** 	return 0;
 634:Src/B3M.c     **** }
ARM GAS  /tmp/cckyA7fG.s 			page 86


 4315              		.loc 1 634 0
 4316 0036 0020     		movs	r0, #0
 4317 0038 11B0     		add	sp, sp, #68
 4318              	.LCFI363:
 4319              		.cfi_def_cfa_offset 28
 4320              		@ sp needed
 4321 003a BDE83040 		pop	{r4, r5, lr}
 4322              	.LCFI364:
 4323              		.cfi_restore 14
 4324              		.cfi_restore 5
 4325              		.cfi_restore 4
 4326              		.cfi_def_cfa_offset 16
 4327 003e 04B0     		add	sp, sp, #16
 4328              	.LCFI365:
 4329              		.cfi_def_cfa_offset 0
 4330 0040 7047     		bx	lr
 4331              		.cfi_endproc
 4332              	.LFE184:
 4334 0042 00BF     		.section	.text.B3M_ControlLow_Write,"ax",%progbits
 4335              		.align	2
 4336              		.global	B3M_ControlLow_Write
 4337              		.thumb
 4338              		.thumb_func
 4340              	B3M_ControlLow_Write:
 4341              	.LFB185:
 635:Src/B3M.c     **** 
 636:Src/B3M.c     **** uint8_t B3M_ControlLow_Write(UART_HandleTypeDef huart, uint8_t SERVO_ID, uint8_t NEW_CONTROL_LOW)
 637:Src/B3M.c     **** {
 4342              		.loc 1 637 0
 4343              		.cfi_startproc
 4344              		@ args = 72, pretend = 16, frame = 0
 4345              		@ frame_needed = 0, uses_anonymous_args = 0
 4346              	.LVL213:
 4347 0000 84B0     		sub	sp, sp, #16
 4348              	.LCFI366:
 4349              		.cfi_def_cfa_offset 16
 4350 0002 30B5     		push	{r4, r5, lr}
 4351              	.LCFI367:
 4352              		.cfi_def_cfa_offset 28
 4353              		.cfi_offset 4, -28
 4354              		.cfi_offset 5, -24
 4355              		.cfi_offset 14, -20
 4356 0004 91B0     		sub	sp, sp, #68
 4357              	.LCFI368:
 4358              		.cfi_def_cfa_offset 96
 4359 0006 14AC     		add	r4, sp, #80
 4360 0008 84E80F00 		stmia	r4, {r0, r1, r2, r3}
 638:Src/B3M.c     **** 	B3M_Write_2B(huart, SERVO_ID, NEW_CONTROL_LOW, CONTROL_CONTROL_LOW);
 4361              		.loc 1 638 0
 4362 000c 5C23     		movs	r3, #92
 4363 000e 0E93     		str	r3, [sp, #56]
 4364 0010 9DF89430 		ldrb	r3, [sp, #148]	@ zero_extendqisi2
 4365 0014 0D93     		str	r3, [sp, #52]
 4366 0016 9DF89030 		ldrb	r3, [sp, #144]	@ zero_extendqisi2
 4367 001a 0C93     		str	r3, [sp, #48]
 4368 001c 6C46     		mov	r4, sp
 4369 001e 18AD     		add	r5, sp, #96
ARM GAS  /tmp/cckyA7fG.s 			page 87


 4370 0020 0FCD     		ldmia	r5!, {r0, r1, r2, r3}
 4371 0022 0FC4     		stmia	r4!, {r0, r1, r2, r3}
 4372 0024 0FCD     		ldmia	r5!, {r0, r1, r2, r3}
 4373 0026 0FC4     		stmia	r4!, {r0, r1, r2, r3}
 4374 0028 95E80F00 		ldmia	r5, {r0, r1, r2, r3}
 4375 002c 84E80F00 		stmia	r4, {r0, r1, r2, r3}
 4376 0030 14AB     		add	r3, sp, #80
 4377 0032 0FCB     		ldmia	r3, {r0, r1, r2, r3}
 4378 0034 FFF7FEFF 		bl	B3M_Write_2B
 4379              	.LVL214:
 639:Src/B3M.c     **** 	return 0;
 640:Src/B3M.c     **** }
 4380              		.loc 1 640 0
 4381 0038 0020     		movs	r0, #0
 4382 003a 11B0     		add	sp, sp, #68
 4383              	.LCFI369:
 4384              		.cfi_def_cfa_offset 28
 4385              		@ sp needed
 4386 003c BDE83040 		pop	{r4, r5, lr}
 4387              	.LCFI370:
 4388              		.cfi_restore 14
 4389              		.cfi_restore 5
 4390              		.cfi_restore 4
 4391              		.cfi_def_cfa_offset 16
 4392 0040 04B0     		add	sp, sp, #16
 4393              	.LCFI371:
 4394              		.cfi_def_cfa_offset 0
 4395 0042 7047     		bx	lr
 4396              		.cfi_endproc
 4397              	.LFE185:
 4399              		.section	.text.B3M_GainPresetNO_Read,"ax",%progbits
 4400              		.align	2
 4401              		.global	B3M_GainPresetNO_Read
 4402              		.thumb
 4403              		.thumb_func
 4405              	B3M_GainPresetNO_Read:
 4406              	.LFB186:
 641:Src/B3M.c     **** 
 642:Src/B3M.c     **** uint8_t B3M_GainPresetNO_Read(UART_HandleTypeDef huart, uint8_t SERVO_ID)
 643:Src/B3M.c     **** {
 4407              		.loc 1 643 0
 4408              		.cfi_startproc
 4409              		@ args = 68, pretend = 16, frame = 0
 4410              		@ frame_needed = 0, uses_anonymous_args = 0
 4411              	.LVL215:
 4412 0000 84B0     		sub	sp, sp, #16
 4413              	.LCFI372:
 4414              		.cfi_def_cfa_offset 16
 4415 0002 30B5     		push	{r4, r5, lr}
 4416              	.LCFI373:
 4417              		.cfi_def_cfa_offset 28
 4418              		.cfi_offset 4, -28
 4419              		.cfi_offset 5, -24
 4420              		.cfi_offset 14, -20
 4421 0004 91B0     		sub	sp, sp, #68
 4422              	.LCFI374:
 4423              		.cfi_def_cfa_offset 96
ARM GAS  /tmp/cckyA7fG.s 			page 88


 4424 0006 14AC     		add	r4, sp, #80
 4425 0008 84E80F00 		stmia	r4, {r0, r1, r2, r3}
 644:Src/B3M.c     **** 	B3M_Read(huart, SERVO_ID, CONTROL_GAIN_PRESETNO, READ_LENGTH_1B);
 4426              		.loc 1 644 0
 4427 000c 0123     		movs	r3, #1
 4428 000e 0E93     		str	r3, [sp, #56]
 4429 0010 5C23     		movs	r3, #92
 4430 0012 0D93     		str	r3, [sp, #52]
 4431 0014 9DF89030 		ldrb	r3, [sp, #144]	@ zero_extendqisi2
 4432 0018 0C93     		str	r3, [sp, #48]
 4433 001a 6C46     		mov	r4, sp
 4434 001c 18AD     		add	r5, sp, #96
 4435 001e 0FCD     		ldmia	r5!, {r0, r1, r2, r3}
 4436 0020 0FC4     		stmia	r4!, {r0, r1, r2, r3}
 4437 0022 0FCD     		ldmia	r5!, {r0, r1, r2, r3}
 4438 0024 0FC4     		stmia	r4!, {r0, r1, r2, r3}
 4439 0026 95E80F00 		ldmia	r5, {r0, r1, r2, r3}
 4440 002a 84E80F00 		stmia	r4, {r0, r1, r2, r3}
 4441 002e 14AB     		add	r3, sp, #80
 4442 0030 0FCB     		ldmia	r3, {r0, r1, r2, r3}
 4443 0032 FFF7FEFF 		bl	B3M_Read
 4444              	.LVL216:
 645:Src/B3M.c     **** 	return 0;
 646:Src/B3M.c     **** }
 4445              		.loc 1 646 0
 4446 0036 0020     		movs	r0, #0
 4447 0038 11B0     		add	sp, sp, #68
 4448              	.LCFI375:
 4449              		.cfi_def_cfa_offset 28
 4450              		@ sp needed
 4451 003a BDE83040 		pop	{r4, r5, lr}
 4452              	.LCFI376:
 4453              		.cfi_restore 14
 4454              		.cfi_restore 5
 4455              		.cfi_restore 4
 4456              		.cfi_def_cfa_offset 16
 4457 003e 04B0     		add	sp, sp, #16
 4458              	.LCFI377:
 4459              		.cfi_def_cfa_offset 0
 4460 0040 7047     		bx	lr
 4461              		.cfi_endproc
 4462              	.LFE186:
 4464 0042 00BF     		.section	.text.B3M_GainPresetNO_Write,"ax",%progbits
 4465              		.align	2
 4466              		.global	B3M_GainPresetNO_Write
 4467              		.thumb
 4468              		.thumb_func
 4470              	B3M_GainPresetNO_Write:
 4471              	.LFB187:
 647:Src/B3M.c     **** 
 648:Src/B3M.c     **** uint8_t B3M_GainPresetNO_Write(UART_HandleTypeDef huart, uint8_t SERVO_ID, uint8_t NEW_GAIN_PRESETN
 649:Src/B3M.c     **** {
 4472              		.loc 1 649 0
 4473              		.cfi_startproc
 4474              		@ args = 72, pretend = 16, frame = 0
 4475              		@ frame_needed = 0, uses_anonymous_args = 0
 4476              	.LVL217:
ARM GAS  /tmp/cckyA7fG.s 			page 89


 4477 0000 84B0     		sub	sp, sp, #16
 4478              	.LCFI378:
 4479              		.cfi_def_cfa_offset 16
 4480 0002 30B5     		push	{r4, r5, lr}
 4481              	.LCFI379:
 4482              		.cfi_def_cfa_offset 28
 4483              		.cfi_offset 4, -28
 4484              		.cfi_offset 5, -24
 4485              		.cfi_offset 14, -20
 4486 0004 91B0     		sub	sp, sp, #68
 4487              	.LCFI380:
 4488              		.cfi_def_cfa_offset 96
 4489 0006 14AC     		add	r4, sp, #80
 4490 0008 84E80F00 		stmia	r4, {r0, r1, r2, r3}
 650:Src/B3M.c     **** 	B3M_Write_1B(huart, SERVO_ID, NEW_GAIN_PRESETNO, CONTROL_GAIN_PRESETNO);
 4491              		.loc 1 650 0
 4492 000c 5C23     		movs	r3, #92
 4493 000e 0E93     		str	r3, [sp, #56]
 4494 0010 9DF89430 		ldrb	r3, [sp, #148]	@ zero_extendqisi2
 4495 0014 0D93     		str	r3, [sp, #52]
 4496 0016 9DF89030 		ldrb	r3, [sp, #144]	@ zero_extendqisi2
 4497 001a 0C93     		str	r3, [sp, #48]
 4498 001c 6C46     		mov	r4, sp
 4499 001e 18AD     		add	r5, sp, #96
 4500 0020 0FCD     		ldmia	r5!, {r0, r1, r2, r3}
 4501 0022 0FC4     		stmia	r4!, {r0, r1, r2, r3}
 4502 0024 0FCD     		ldmia	r5!, {r0, r1, r2, r3}
 4503 0026 0FC4     		stmia	r4!, {r0, r1, r2, r3}
 4504 0028 95E80F00 		ldmia	r5, {r0, r1, r2, r3}
 4505 002c 84E80F00 		stmia	r4, {r0, r1, r2, r3}
 4506 0030 14AB     		add	r3, sp, #80
 4507 0032 0FCB     		ldmia	r3, {r0, r1, r2, r3}
 4508 0034 FFF7FEFF 		bl	B3M_Write_1B
 4509              	.LVL218:
 651:Src/B3M.c     **** 	return 0;
 652:Src/B3M.c     **** }
 4510              		.loc 1 652 0
 4511 0038 0020     		movs	r0, #0
 4512 003a 11B0     		add	sp, sp, #68
 4513              	.LCFI381:
 4514              		.cfi_def_cfa_offset 28
 4515              		@ sp needed
 4516 003c BDE83040 		pop	{r4, r5, lr}
 4517              	.LCFI382:
 4518              		.cfi_restore 14
 4519              		.cfi_restore 5
 4520              		.cfi_restore 4
 4521              		.cfi_def_cfa_offset 16
 4522 0040 04B0     		add	sp, sp, #16
 4523              	.LCFI383:
 4524              		.cfi_def_cfa_offset 0
 4525 0042 7047     		bx	lr
 4526              		.cfi_endproc
 4527              	.LFE187:
 4529              		.section	.text.B3M_Type_ReadOnly,"ax",%progbits
 4530              		.align	2
 4531              		.global	B3M_Type_ReadOnly
ARM GAS  /tmp/cckyA7fG.s 			page 90


 4532              		.thumb
 4533              		.thumb_func
 4535              	B3M_Type_ReadOnly:
 4536              	.LFB188:
 653:Src/B3M.c     **** 
 654:Src/B3M.c     **** uint8_t B3M_Type_ReadOnly(UART_HandleTypeDef huart, uint8_t SERVO_ID)
 655:Src/B3M.c     **** {
 4537              		.loc 1 655 0
 4538              		.cfi_startproc
 4539              		@ args = 68, pretend = 16, frame = 0
 4540              		@ frame_needed = 0, uses_anonymous_args = 0
 4541              	.LVL219:
 4542 0000 84B0     		sub	sp, sp, #16
 4543              	.LCFI384:
 4544              		.cfi_def_cfa_offset 16
 4545 0002 30B5     		push	{r4, r5, lr}
 4546              	.LCFI385:
 4547              		.cfi_def_cfa_offset 28
 4548              		.cfi_offset 4, -28
 4549              		.cfi_offset 5, -24
 4550              		.cfi_offset 14, -20
 4551 0004 91B0     		sub	sp, sp, #68
 4552              	.LCFI386:
 4553              		.cfi_def_cfa_offset 96
 4554 0006 14AC     		add	r4, sp, #80
 4555 0008 84E80F00 		stmia	r4, {r0, r1, r2, r3}
 656:Src/B3M.c     **** 	B3M_Read(huart, SERVO_ID, CONTROL_TYPE, READ_LENGTH_1B);
 4556              		.loc 1 656 0
 4557 000c 0123     		movs	r3, #1
 4558 000e 0E93     		str	r3, [sp, #56]
 4559 0010 5D23     		movs	r3, #93
 4560 0012 0D93     		str	r3, [sp, #52]
 4561 0014 9DF89030 		ldrb	r3, [sp, #144]	@ zero_extendqisi2
 4562 0018 0C93     		str	r3, [sp, #48]
 4563 001a 6C46     		mov	r4, sp
 4564 001c 18AD     		add	r5, sp, #96
 4565 001e 0FCD     		ldmia	r5!, {r0, r1, r2, r3}
 4566 0020 0FC4     		stmia	r4!, {r0, r1, r2, r3}
 4567 0022 0FCD     		ldmia	r5!, {r0, r1, r2, r3}
 4568 0024 0FC4     		stmia	r4!, {r0, r1, r2, r3}
 4569 0026 95E80F00 		ldmia	r5, {r0, r1, r2, r3}
 4570 002a 84E80F00 		stmia	r4, {r0, r1, r2, r3}
 4571 002e 14AB     		add	r3, sp, #80
 4572 0030 0FCB     		ldmia	r3, {r0, r1, r2, r3}
 4573 0032 FFF7FEFF 		bl	B3M_Read
 4574              	.LVL220:
 657:Src/B3M.c     **** 	return 0;
 658:Src/B3M.c     **** }
 4575              		.loc 1 658 0
 4576 0036 0020     		movs	r0, #0
 4577 0038 11B0     		add	sp, sp, #68
 4578              	.LCFI387:
 4579              		.cfi_def_cfa_offset 28
 4580              		@ sp needed
 4581 003a BDE83040 		pop	{r4, r5, lr}
 4582              	.LCFI388:
 4583              		.cfi_restore 14
ARM GAS  /tmp/cckyA7fG.s 			page 91


 4584              		.cfi_restore 5
 4585              		.cfi_restore 4
 4586              		.cfi_def_cfa_offset 16
 4587 003e 04B0     		add	sp, sp, #16
 4588              	.LCFI389:
 4589              		.cfi_def_cfa_offset 0
 4590 0040 7047     		bx	lr
 4591              		.cfi_endproc
 4592              	.LFE188:
 4594 0042 00BF     		.section	.text.B3M_KP0_Read,"ax",%progbits
 4595              		.align	2
 4596              		.global	B3M_KP0_Read
 4597              		.thumb
 4598              		.thumb_func
 4600              	B3M_KP0_Read:
 4601              	.LFB189:
 659:Src/B3M.c     **** 
 660:Src/B3M.c     **** uint8_t B3M_KP0_Read(UART_HandleTypeDef huart, uint8_t SERVO_ID)
 661:Src/B3M.c     **** {
 4602              		.loc 1 661 0
 4603              		.cfi_startproc
 4604              		@ args = 68, pretend = 16, frame = 0
 4605              		@ frame_needed = 0, uses_anonymous_args = 0
 4606              	.LVL221:
 4607 0000 84B0     		sub	sp, sp, #16
 4608              	.LCFI390:
 4609              		.cfi_def_cfa_offset 16
 4610 0002 30B5     		push	{r4, r5, lr}
 4611              	.LCFI391:
 4612              		.cfi_def_cfa_offset 28
 4613              		.cfi_offset 4, -28
 4614              		.cfi_offset 5, -24
 4615              		.cfi_offset 14, -20
 4616 0004 91B0     		sub	sp, sp, #68
 4617              	.LCFI392:
 4618              		.cfi_def_cfa_offset 96
 4619 0006 14AC     		add	r4, sp, #80
 4620 0008 84E80F00 		stmia	r4, {r0, r1, r2, r3}
 662:Src/B3M.c     **** 	B3M_Read(huart, SERVO_ID, CONTROL_KP0, READ_LENGTH_4B);
 4621              		.loc 1 662 0
 4622 000c 0423     		movs	r3, #4
 4623 000e 0E93     		str	r3, [sp, #56]
 4624 0010 5E23     		movs	r3, #94
 4625 0012 0D93     		str	r3, [sp, #52]
 4626 0014 9DF89030 		ldrb	r3, [sp, #144]	@ zero_extendqisi2
 4627 0018 0C93     		str	r3, [sp, #48]
 4628 001a 6C46     		mov	r4, sp
 4629 001c 18AD     		add	r5, sp, #96
 4630 001e 0FCD     		ldmia	r5!, {r0, r1, r2, r3}
 4631 0020 0FC4     		stmia	r4!, {r0, r1, r2, r3}
 4632 0022 0FCD     		ldmia	r5!, {r0, r1, r2, r3}
 4633 0024 0FC4     		stmia	r4!, {r0, r1, r2, r3}
 4634 0026 95E80F00 		ldmia	r5, {r0, r1, r2, r3}
 4635 002a 84E80F00 		stmia	r4, {r0, r1, r2, r3}
 4636 002e 14AB     		add	r3, sp, #80
 4637 0030 0FCB     		ldmia	r3, {r0, r1, r2, r3}
 4638 0032 FFF7FEFF 		bl	B3M_Read
ARM GAS  /tmp/cckyA7fG.s 			page 92


 4639              	.LVL222:
 663:Src/B3M.c     **** 	return 0;
 664:Src/B3M.c     **** }
 4640              		.loc 1 664 0
 4641 0036 0020     		movs	r0, #0
 4642 0038 11B0     		add	sp, sp, #68
 4643              	.LCFI393:
 4644              		.cfi_def_cfa_offset 28
 4645              		@ sp needed
 4646 003a BDE83040 		pop	{r4, r5, lr}
 4647              	.LCFI394:
 4648              		.cfi_restore 14
 4649              		.cfi_restore 5
 4650              		.cfi_restore 4
 4651              		.cfi_def_cfa_offset 16
 4652 003e 04B0     		add	sp, sp, #16
 4653              	.LCFI395:
 4654              		.cfi_def_cfa_offset 0
 4655 0040 7047     		bx	lr
 4656              		.cfi_endproc
 4657              	.LFE189:
 4659 0042 00BF     		.section	.text.B3M_KP0_Write,"ax",%progbits
 4660              		.align	2
 4661              		.global	B3M_KP0_Write
 4662              		.thumb
 4663              		.thumb_func
 4665              	B3M_KP0_Write:
 4666              	.LFB190:
 665:Src/B3M.c     **** 
 666:Src/B3M.c     **** uint8_t B3M_KP0_Write(UART_HandleTypeDef huart, uint8_t SERVO_ID, uint8_t NEW_KP0)
 667:Src/B3M.c     **** {
 4667              		.loc 1 667 0
 4668              		.cfi_startproc
 4669              		@ args = 72, pretend = 16, frame = 0
 4670              		@ frame_needed = 0, uses_anonymous_args = 0
 4671              	.LVL223:
 4672 0000 84B0     		sub	sp, sp, #16
 4673              	.LCFI396:
 4674              		.cfi_def_cfa_offset 16
 4675 0002 30B5     		push	{r4, r5, lr}
 4676              	.LCFI397:
 4677              		.cfi_def_cfa_offset 28
 4678              		.cfi_offset 4, -28
 4679              		.cfi_offset 5, -24
 4680              		.cfi_offset 14, -20
 4681 0004 91B0     		sub	sp, sp, #68
 4682              	.LCFI398:
 4683              		.cfi_def_cfa_offset 96
 4684 0006 14AC     		add	r4, sp, #80
 4685 0008 84E80F00 		stmia	r4, {r0, r1, r2, r3}
 668:Src/B3M.c     **** 	B3M_Write_4B(huart, SERVO_ID, NEW_KP0, CONTROL_KP0);
 4686              		.loc 1 668 0
 4687 000c 5E23     		movs	r3, #94
 4688 000e 0E93     		str	r3, [sp, #56]
 4689 0010 9DF89430 		ldrb	r3, [sp, #148]	@ zero_extendqisi2
 4690 0014 0D93     		str	r3, [sp, #52]
 4691 0016 9DF89030 		ldrb	r3, [sp, #144]	@ zero_extendqisi2
ARM GAS  /tmp/cckyA7fG.s 			page 93


 4692 001a 0C93     		str	r3, [sp, #48]
 4693 001c 6C46     		mov	r4, sp
 4694 001e 18AD     		add	r5, sp, #96
 4695 0020 0FCD     		ldmia	r5!, {r0, r1, r2, r3}
 4696 0022 0FC4     		stmia	r4!, {r0, r1, r2, r3}
 4697 0024 0FCD     		ldmia	r5!, {r0, r1, r2, r3}
 4698 0026 0FC4     		stmia	r4!, {r0, r1, r2, r3}
 4699 0028 95E80F00 		ldmia	r5, {r0, r1, r2, r3}
 4700 002c 84E80F00 		stmia	r4, {r0, r1, r2, r3}
 4701 0030 14AB     		add	r3, sp, #80
 4702 0032 0FCB     		ldmia	r3, {r0, r1, r2, r3}
 4703 0034 FFF7FEFF 		bl	B3M_Write_4B
 4704              	.LVL224:
 669:Src/B3M.c     **** 	return 0;
 670:Src/B3M.c     **** }
 4705              		.loc 1 670 0
 4706 0038 0020     		movs	r0, #0
 4707 003a 11B0     		add	sp, sp, #68
 4708              	.LCFI399:
 4709              		.cfi_def_cfa_offset 28
 4710              		@ sp needed
 4711 003c BDE83040 		pop	{r4, r5, lr}
 4712              	.LCFI400:
 4713              		.cfi_restore 14
 4714              		.cfi_restore 5
 4715              		.cfi_restore 4
 4716              		.cfi_def_cfa_offset 16
 4717 0040 04B0     		add	sp, sp, #16
 4718              	.LCFI401:
 4719              		.cfi_def_cfa_offset 0
 4720 0042 7047     		bx	lr
 4721              		.cfi_endproc
 4722              	.LFE190:
 4724              		.section	.text.B3M_KD0_Read,"ax",%progbits
 4725              		.align	2
 4726              		.global	B3M_KD0_Read
 4727              		.thumb
 4728              		.thumb_func
 4730              	B3M_KD0_Read:
 4731              	.LFB191:
 671:Src/B3M.c     **** 
 672:Src/B3M.c     **** uint8_t B3M_KD0_Read(UART_HandleTypeDef huart, uint8_t SERVO_ID)
 673:Src/B3M.c     **** {
 4732              		.loc 1 673 0
 4733              		.cfi_startproc
 4734              		@ args = 68, pretend = 16, frame = 0
 4735              		@ frame_needed = 0, uses_anonymous_args = 0
 4736              	.LVL225:
 4737 0000 84B0     		sub	sp, sp, #16
 4738              	.LCFI402:
 4739              		.cfi_def_cfa_offset 16
 4740 0002 30B5     		push	{r4, r5, lr}
 4741              	.LCFI403:
 4742              		.cfi_def_cfa_offset 28
 4743              		.cfi_offset 4, -28
 4744              		.cfi_offset 5, -24
 4745              		.cfi_offset 14, -20
ARM GAS  /tmp/cckyA7fG.s 			page 94


 4746 0004 91B0     		sub	sp, sp, #68
 4747              	.LCFI404:
 4748              		.cfi_def_cfa_offset 96
 4749 0006 14AC     		add	r4, sp, #80
 4750 0008 84E80F00 		stmia	r4, {r0, r1, r2, r3}
 674:Src/B3M.c     **** 	B3M_Read(huart, SERVO_ID, CONTROL_KD0, READ_LENGTH_4B);
 4751              		.loc 1 674 0
 4752 000c 0423     		movs	r3, #4
 4753 000e 0E93     		str	r3, [sp, #56]
 4754 0010 6223     		movs	r3, #98
 4755 0012 0D93     		str	r3, [sp, #52]
 4756 0014 9DF89030 		ldrb	r3, [sp, #144]	@ zero_extendqisi2
 4757 0018 0C93     		str	r3, [sp, #48]
 4758 001a 6C46     		mov	r4, sp
 4759 001c 18AD     		add	r5, sp, #96
 4760 001e 0FCD     		ldmia	r5!, {r0, r1, r2, r3}
 4761 0020 0FC4     		stmia	r4!, {r0, r1, r2, r3}
 4762 0022 0FCD     		ldmia	r5!, {r0, r1, r2, r3}
 4763 0024 0FC4     		stmia	r4!, {r0, r1, r2, r3}
 4764 0026 95E80F00 		ldmia	r5, {r0, r1, r2, r3}
 4765 002a 84E80F00 		stmia	r4, {r0, r1, r2, r3}
 4766 002e 14AB     		add	r3, sp, #80
 4767 0030 0FCB     		ldmia	r3, {r0, r1, r2, r3}
 4768 0032 FFF7FEFF 		bl	B3M_Read
 4769              	.LVL226:
 675:Src/B3M.c     **** 	return 0;
 676:Src/B3M.c     **** }
 4770              		.loc 1 676 0
 4771 0036 0020     		movs	r0, #0
 4772 0038 11B0     		add	sp, sp, #68
 4773              	.LCFI405:
 4774              		.cfi_def_cfa_offset 28
 4775              		@ sp needed
 4776 003a BDE83040 		pop	{r4, r5, lr}
 4777              	.LCFI406:
 4778              		.cfi_restore 14
 4779              		.cfi_restore 5
 4780              		.cfi_restore 4
 4781              		.cfi_def_cfa_offset 16
 4782 003e 04B0     		add	sp, sp, #16
 4783              	.LCFI407:
 4784              		.cfi_def_cfa_offset 0
 4785 0040 7047     		bx	lr
 4786              		.cfi_endproc
 4787              	.LFE191:
 4789 0042 00BF     		.section	.text.B3M_KD0_Write,"ax",%progbits
 4790              		.align	2
 4791              		.global	B3M_KD0_Write
 4792              		.thumb
 4793              		.thumb_func
 4795              	B3M_KD0_Write:
 4796              	.LFB192:
 677:Src/B3M.c     **** 
 678:Src/B3M.c     **** uint8_t B3M_KD0_Write(UART_HandleTypeDef huart, uint8_t SERVO_ID, uint8_t NEW_KD0)
 679:Src/B3M.c     **** {
 4797              		.loc 1 679 0
 4798              		.cfi_startproc
ARM GAS  /tmp/cckyA7fG.s 			page 95


 4799              		@ args = 72, pretend = 16, frame = 0
 4800              		@ frame_needed = 0, uses_anonymous_args = 0
 4801              	.LVL227:
 4802 0000 84B0     		sub	sp, sp, #16
 4803              	.LCFI408:
 4804              		.cfi_def_cfa_offset 16
 4805 0002 30B5     		push	{r4, r5, lr}
 4806              	.LCFI409:
 4807              		.cfi_def_cfa_offset 28
 4808              		.cfi_offset 4, -28
 4809              		.cfi_offset 5, -24
 4810              		.cfi_offset 14, -20
 4811 0004 91B0     		sub	sp, sp, #68
 4812              	.LCFI410:
 4813              		.cfi_def_cfa_offset 96
 4814 0006 14AC     		add	r4, sp, #80
 4815 0008 84E80F00 		stmia	r4, {r0, r1, r2, r3}
 680:Src/B3M.c     **** 	B3M_Write_4B(huart, SERVO_ID, NEW_KD0, CONTROL_KD0);
 4816              		.loc 1 680 0
 4817 000c 6223     		movs	r3, #98
 4818 000e 0E93     		str	r3, [sp, #56]
 4819 0010 9DF89430 		ldrb	r3, [sp, #148]	@ zero_extendqisi2
 4820 0014 0D93     		str	r3, [sp, #52]
 4821 0016 9DF89030 		ldrb	r3, [sp, #144]	@ zero_extendqisi2
 4822 001a 0C93     		str	r3, [sp, #48]
 4823 001c 6C46     		mov	r4, sp
 4824 001e 18AD     		add	r5, sp, #96
 4825 0020 0FCD     		ldmia	r5!, {r0, r1, r2, r3}
 4826 0022 0FC4     		stmia	r4!, {r0, r1, r2, r3}
 4827 0024 0FCD     		ldmia	r5!, {r0, r1, r2, r3}
 4828 0026 0FC4     		stmia	r4!, {r0, r1, r2, r3}
 4829 0028 95E80F00 		ldmia	r5, {r0, r1, r2, r3}
 4830 002c 84E80F00 		stmia	r4, {r0, r1, r2, r3}
 4831 0030 14AB     		add	r3, sp, #80
 4832 0032 0FCB     		ldmia	r3, {r0, r1, r2, r3}
 4833 0034 FFF7FEFF 		bl	B3M_Write_4B
 4834              	.LVL228:
 681:Src/B3M.c     **** 	return 0;
 682:Src/B3M.c     **** }
 4835              		.loc 1 682 0
 4836 0038 0020     		movs	r0, #0
 4837 003a 11B0     		add	sp, sp, #68
 4838              	.LCFI411:
 4839              		.cfi_def_cfa_offset 28
 4840              		@ sp needed
 4841 003c BDE83040 		pop	{r4, r5, lr}
 4842              	.LCFI412:
 4843              		.cfi_restore 14
 4844              		.cfi_restore 5
 4845              		.cfi_restore 4
 4846              		.cfi_def_cfa_offset 16
 4847 0040 04B0     		add	sp, sp, #16
 4848              	.LCFI413:
 4849              		.cfi_def_cfa_offset 0
 4850 0042 7047     		bx	lr
 4851              		.cfi_endproc
 4852              	.LFE192:
ARM GAS  /tmp/cckyA7fG.s 			page 96


 4854              		.section	.text.B3M_KI0_Read,"ax",%progbits
 4855              		.align	2
 4856              		.global	B3M_KI0_Read
 4857              		.thumb
 4858              		.thumb_func
 4860              	B3M_KI0_Read:
 4861              	.LFB193:
 683:Src/B3M.c     **** 
 684:Src/B3M.c     **** uint8_t B3M_KI0_Read(UART_HandleTypeDef huart, uint8_t SERVO_ID)
 685:Src/B3M.c     **** {
 4862              		.loc 1 685 0
 4863              		.cfi_startproc
 4864              		@ args = 68, pretend = 16, frame = 0
 4865              		@ frame_needed = 0, uses_anonymous_args = 0
 4866              	.LVL229:
 4867 0000 84B0     		sub	sp, sp, #16
 4868              	.LCFI414:
 4869              		.cfi_def_cfa_offset 16
 4870 0002 30B5     		push	{r4, r5, lr}
 4871              	.LCFI415:
 4872              		.cfi_def_cfa_offset 28
 4873              		.cfi_offset 4, -28
 4874              		.cfi_offset 5, -24
 4875              		.cfi_offset 14, -20
 4876 0004 91B0     		sub	sp, sp, #68
 4877              	.LCFI416:
 4878              		.cfi_def_cfa_offset 96
 4879 0006 14AC     		add	r4, sp, #80
 4880 0008 84E80F00 		stmia	r4, {r0, r1, r2, r3}
 686:Src/B3M.c     **** 	B3M_Read(huart, SERVO_ID, CONTROL_KI0, READ_LENGTH_4B);
 4881              		.loc 1 686 0
 4882 000c 0423     		movs	r3, #4
 4883 000e 0E93     		str	r3, [sp, #56]
 4884 0010 6623     		movs	r3, #102
 4885 0012 0D93     		str	r3, [sp, #52]
 4886 0014 9DF89030 		ldrb	r3, [sp, #144]	@ zero_extendqisi2
 4887 0018 0C93     		str	r3, [sp, #48]
 4888 001a 6C46     		mov	r4, sp
 4889 001c 18AD     		add	r5, sp, #96
 4890 001e 0FCD     		ldmia	r5!, {r0, r1, r2, r3}
 4891 0020 0FC4     		stmia	r4!, {r0, r1, r2, r3}
 4892 0022 0FCD     		ldmia	r5!, {r0, r1, r2, r3}
 4893 0024 0FC4     		stmia	r4!, {r0, r1, r2, r3}
 4894 0026 95E80F00 		ldmia	r5, {r0, r1, r2, r3}
 4895 002a 84E80F00 		stmia	r4, {r0, r1, r2, r3}
 4896 002e 14AB     		add	r3, sp, #80
 4897 0030 0FCB     		ldmia	r3, {r0, r1, r2, r3}
 4898 0032 FFF7FEFF 		bl	B3M_Read
 4899              	.LVL230:
 687:Src/B3M.c     **** 	return 0;
 688:Src/B3M.c     **** }
 4900              		.loc 1 688 0
 4901 0036 0020     		movs	r0, #0
 4902 0038 11B0     		add	sp, sp, #68
 4903              	.LCFI417:
 4904              		.cfi_def_cfa_offset 28
 4905              		@ sp needed
ARM GAS  /tmp/cckyA7fG.s 			page 97


 4906 003a BDE83040 		pop	{r4, r5, lr}
 4907              	.LCFI418:
 4908              		.cfi_restore 14
 4909              		.cfi_restore 5
 4910              		.cfi_restore 4
 4911              		.cfi_def_cfa_offset 16
 4912 003e 04B0     		add	sp, sp, #16
 4913              	.LCFI419:
 4914              		.cfi_def_cfa_offset 0
 4915 0040 7047     		bx	lr
 4916              		.cfi_endproc
 4917              	.LFE193:
 4919 0042 00BF     		.section	.text.B3M_KI0_Write,"ax",%progbits
 4920              		.align	2
 4921              		.global	B3M_KI0_Write
 4922              		.thumb
 4923              		.thumb_func
 4925              	B3M_KI0_Write:
 4926              	.LFB194:
 689:Src/B3M.c     **** 
 690:Src/B3M.c     **** uint8_t B3M_KI0_Write(UART_HandleTypeDef huart, uint8_t SERVO_ID, uint8_t NEW_KI0)
 691:Src/B3M.c     **** {
 4927              		.loc 1 691 0
 4928              		.cfi_startproc
 4929              		@ args = 72, pretend = 16, frame = 0
 4930              		@ frame_needed = 0, uses_anonymous_args = 0
 4931              	.LVL231:
 4932 0000 84B0     		sub	sp, sp, #16
 4933              	.LCFI420:
 4934              		.cfi_def_cfa_offset 16
 4935 0002 30B5     		push	{r4, r5, lr}
 4936              	.LCFI421:
 4937              		.cfi_def_cfa_offset 28
 4938              		.cfi_offset 4, -28
 4939              		.cfi_offset 5, -24
 4940              		.cfi_offset 14, -20
 4941 0004 91B0     		sub	sp, sp, #68
 4942              	.LCFI422:
 4943              		.cfi_def_cfa_offset 96
 4944 0006 14AC     		add	r4, sp, #80
 4945 0008 84E80F00 		stmia	r4, {r0, r1, r2, r3}
 692:Src/B3M.c     **** 	B3M_Write_4B(huart, SERVO_ID, NEW_KI0, CONTROL_KI0);
 4946              		.loc 1 692 0
 4947 000c 6623     		movs	r3, #102
 4948 000e 0E93     		str	r3, [sp, #56]
 4949 0010 9DF89430 		ldrb	r3, [sp, #148]	@ zero_extendqisi2
 4950 0014 0D93     		str	r3, [sp, #52]
 4951 0016 9DF89030 		ldrb	r3, [sp, #144]	@ zero_extendqisi2
 4952 001a 0C93     		str	r3, [sp, #48]
 4953 001c 6C46     		mov	r4, sp
 4954 001e 18AD     		add	r5, sp, #96
 4955 0020 0FCD     		ldmia	r5!, {r0, r1, r2, r3}
 4956 0022 0FC4     		stmia	r4!, {r0, r1, r2, r3}
 4957 0024 0FCD     		ldmia	r5!, {r0, r1, r2, r3}
 4958 0026 0FC4     		stmia	r4!, {r0, r1, r2, r3}
 4959 0028 95E80F00 		ldmia	r5, {r0, r1, r2, r3}
 4960 002c 84E80F00 		stmia	r4, {r0, r1, r2, r3}
ARM GAS  /tmp/cckyA7fG.s 			page 98


 4961 0030 14AB     		add	r3, sp, #80
 4962 0032 0FCB     		ldmia	r3, {r0, r1, r2, r3}
 4963 0034 FFF7FEFF 		bl	B3M_Write_4B
 4964              	.LVL232:
 693:Src/B3M.c     **** 	return 0;
 694:Src/B3M.c     **** }
 4965              		.loc 1 694 0
 4966 0038 0020     		movs	r0, #0
 4967 003a 11B0     		add	sp, sp, #68
 4968              	.LCFI423:
 4969              		.cfi_def_cfa_offset 28
 4970              		@ sp needed
 4971 003c BDE83040 		pop	{r4, r5, lr}
 4972              	.LCFI424:
 4973              		.cfi_restore 14
 4974              		.cfi_restore 5
 4975              		.cfi_restore 4
 4976              		.cfi_def_cfa_offset 16
 4977 0040 04B0     		add	sp, sp, #16
 4978              	.LCFI425:
 4979              		.cfi_def_cfa_offset 0
 4980 0042 7047     		bx	lr
 4981              		.cfi_endproc
 4982              	.LFE194:
 4984              		.section	.text.B3M_StaticFriction0_Read,"ax",%progbits
 4985              		.align	2
 4986              		.global	B3M_StaticFriction0_Read
 4987              		.thumb
 4988              		.thumb_func
 4990              	B3M_StaticFriction0_Read:
 4991              	.LFB195:
 695:Src/B3M.c     **** 
 696:Src/B3M.c     **** uint8_t B3M_StaticFriction0_Read(UART_HandleTypeDef huart, uint8_t SERVO_ID)
 697:Src/B3M.c     **** {
 4992              		.loc 1 697 0
 4993              		.cfi_startproc
 4994              		@ args = 68, pretend = 16, frame = 0
 4995              		@ frame_needed = 0, uses_anonymous_args = 0
 4996              	.LVL233:
 4997 0000 84B0     		sub	sp, sp, #16
 4998              	.LCFI426:
 4999              		.cfi_def_cfa_offset 16
 5000 0002 30B5     		push	{r4, r5, lr}
 5001              	.LCFI427:
 5002              		.cfi_def_cfa_offset 28
 5003              		.cfi_offset 4, -28
 5004              		.cfi_offset 5, -24
 5005              		.cfi_offset 14, -20
 5006 0004 91B0     		sub	sp, sp, #68
 5007              	.LCFI428:
 5008              		.cfi_def_cfa_offset 96
 5009 0006 14AC     		add	r4, sp, #80
 5010 0008 84E80F00 		stmia	r4, {r0, r1, r2, r3}
 698:Src/B3M.c     **** 	B3M_Read(huart, SERVO_ID, CONTROL_STATIC_FRICTION0, READ_LENGTH_2B);
 5011              		.loc 1 698 0
 5012 000c 0223     		movs	r3, #2
 5013 000e 0E93     		str	r3, [sp, #56]
ARM GAS  /tmp/cckyA7fG.s 			page 99


 5014 0010 6A23     		movs	r3, #106
 5015 0012 0D93     		str	r3, [sp, #52]
 5016 0014 9DF89030 		ldrb	r3, [sp, #144]	@ zero_extendqisi2
 5017 0018 0C93     		str	r3, [sp, #48]
 5018 001a 6C46     		mov	r4, sp
 5019 001c 18AD     		add	r5, sp, #96
 5020 001e 0FCD     		ldmia	r5!, {r0, r1, r2, r3}
 5021 0020 0FC4     		stmia	r4!, {r0, r1, r2, r3}
 5022 0022 0FCD     		ldmia	r5!, {r0, r1, r2, r3}
 5023 0024 0FC4     		stmia	r4!, {r0, r1, r2, r3}
 5024 0026 95E80F00 		ldmia	r5, {r0, r1, r2, r3}
 5025 002a 84E80F00 		stmia	r4, {r0, r1, r2, r3}
 5026 002e 14AB     		add	r3, sp, #80
 5027 0030 0FCB     		ldmia	r3, {r0, r1, r2, r3}
 5028 0032 FFF7FEFF 		bl	B3M_Read
 5029              	.LVL234:
 699:Src/B3M.c     **** 	return 0;
 700:Src/B3M.c     **** }
 5030              		.loc 1 700 0
 5031 0036 0020     		movs	r0, #0
 5032 0038 11B0     		add	sp, sp, #68
 5033              	.LCFI429:
 5034              		.cfi_def_cfa_offset 28
 5035              		@ sp needed
 5036 003a BDE83040 		pop	{r4, r5, lr}
 5037              	.LCFI430:
 5038              		.cfi_restore 14
 5039              		.cfi_restore 5
 5040              		.cfi_restore 4
 5041              		.cfi_def_cfa_offset 16
 5042 003e 04B0     		add	sp, sp, #16
 5043              	.LCFI431:
 5044              		.cfi_def_cfa_offset 0
 5045 0040 7047     		bx	lr
 5046              		.cfi_endproc
 5047              	.LFE195:
 5049 0042 00BF     		.section	.text.B3M_StaticFriction0_Write,"ax",%progbits
 5050              		.align	2
 5051              		.global	B3M_StaticFriction0_Write
 5052              		.thumb
 5053              		.thumb_func
 5055              	B3M_StaticFriction0_Write:
 5056              	.LFB196:
 701:Src/B3M.c     **** 
 702:Src/B3M.c     **** uint8_t B3M_StaticFriction0_Write(UART_HandleTypeDef huart, uint8_t SERVO_ID, uint8_t NEW_STATIC_FR
 703:Src/B3M.c     **** {
 5057              		.loc 1 703 0
 5058              		.cfi_startproc
 5059              		@ args = 72, pretend = 16, frame = 0
 5060              		@ frame_needed = 0, uses_anonymous_args = 0
 5061              	.LVL235:
 5062 0000 84B0     		sub	sp, sp, #16
 5063              	.LCFI432:
 5064              		.cfi_def_cfa_offset 16
 5065 0002 30B5     		push	{r4, r5, lr}
 5066              	.LCFI433:
 5067              		.cfi_def_cfa_offset 28
ARM GAS  /tmp/cckyA7fG.s 			page 100


 5068              		.cfi_offset 4, -28
 5069              		.cfi_offset 5, -24
 5070              		.cfi_offset 14, -20
 5071 0004 91B0     		sub	sp, sp, #68
 5072              	.LCFI434:
 5073              		.cfi_def_cfa_offset 96
 5074 0006 14AC     		add	r4, sp, #80
 5075 0008 84E80F00 		stmia	r4, {r0, r1, r2, r3}
 704:Src/B3M.c     **** 	B3M_Write_2B(huart, SERVO_ID, NEW_STATIC_FRICTION0, CONTROL_STATIC_FRICTION0);
 5076              		.loc 1 704 0
 5077 000c 6A23     		movs	r3, #106
 5078 000e 0E93     		str	r3, [sp, #56]
 5079 0010 9DF89430 		ldrb	r3, [sp, #148]	@ zero_extendqisi2
 5080 0014 0D93     		str	r3, [sp, #52]
 5081 0016 9DF89030 		ldrb	r3, [sp, #144]	@ zero_extendqisi2
 5082 001a 0C93     		str	r3, [sp, #48]
 5083 001c 6C46     		mov	r4, sp
 5084 001e 18AD     		add	r5, sp, #96
 5085 0020 0FCD     		ldmia	r5!, {r0, r1, r2, r3}
 5086 0022 0FC4     		stmia	r4!, {r0, r1, r2, r3}
 5087 0024 0FCD     		ldmia	r5!, {r0, r1, r2, r3}
 5088 0026 0FC4     		stmia	r4!, {r0, r1, r2, r3}
 5089 0028 95E80F00 		ldmia	r5, {r0, r1, r2, r3}
 5090 002c 84E80F00 		stmia	r4, {r0, r1, r2, r3}
 5091 0030 14AB     		add	r3, sp, #80
 5092 0032 0FCB     		ldmia	r3, {r0, r1, r2, r3}
 5093 0034 FFF7FEFF 		bl	B3M_Write_2B
 5094              	.LVL236:
 705:Src/B3M.c     **** 	return 0;
 706:Src/B3M.c     **** }
 5095              		.loc 1 706 0
 5096 0038 0020     		movs	r0, #0
 5097 003a 11B0     		add	sp, sp, #68
 5098              	.LCFI435:
 5099              		.cfi_def_cfa_offset 28
 5100              		@ sp needed
 5101 003c BDE83040 		pop	{r4, r5, lr}
 5102              	.LCFI436:
 5103              		.cfi_restore 14
 5104              		.cfi_restore 5
 5105              		.cfi_restore 4
 5106              		.cfi_def_cfa_offset 16
 5107 0040 04B0     		add	sp, sp, #16
 5108              	.LCFI437:
 5109              		.cfi_def_cfa_offset 0
 5110 0042 7047     		bx	lr
 5111              		.cfi_endproc
 5112              	.LFE196:
 5114              		.section	.text.B3M_DynamicFriction0_Read,"ax",%progbits
 5115              		.align	2
 5116              		.global	B3M_DynamicFriction0_Read
 5117              		.thumb
 5118              		.thumb_func
 5120              	B3M_DynamicFriction0_Read:
 5121              	.LFB197:
 707:Src/B3M.c     **** 
 708:Src/B3M.c     **** uint8_t B3M_DynamicFriction0_Read(UART_HandleTypeDef huart, uint8_t SERVO_ID)
ARM GAS  /tmp/cckyA7fG.s 			page 101


 709:Src/B3M.c     **** {
 5122              		.loc 1 709 0
 5123              		.cfi_startproc
 5124              		@ args = 68, pretend = 16, frame = 0
 5125              		@ frame_needed = 0, uses_anonymous_args = 0
 5126              	.LVL237:
 5127 0000 84B0     		sub	sp, sp, #16
 5128              	.LCFI438:
 5129              		.cfi_def_cfa_offset 16
 5130 0002 30B5     		push	{r4, r5, lr}
 5131              	.LCFI439:
 5132              		.cfi_def_cfa_offset 28
 5133              		.cfi_offset 4, -28
 5134              		.cfi_offset 5, -24
 5135              		.cfi_offset 14, -20
 5136 0004 91B0     		sub	sp, sp, #68
 5137              	.LCFI440:
 5138              		.cfi_def_cfa_offset 96
 5139 0006 14AC     		add	r4, sp, #80
 5140 0008 84E80F00 		stmia	r4, {r0, r1, r2, r3}
 710:Src/B3M.c     **** 	B3M_Read(huart, SERVO_ID, CONTROL_DYNAMIC_FRICTION0, READ_LENGTH_2B);
 5141              		.loc 1 710 0
 5142 000c 0223     		movs	r3, #2
 5143 000e 0E93     		str	r3, [sp, #56]
 5144 0010 6C23     		movs	r3, #108
 5145 0012 0D93     		str	r3, [sp, #52]
 5146 0014 9DF89030 		ldrb	r3, [sp, #144]	@ zero_extendqisi2
 5147 0018 0C93     		str	r3, [sp, #48]
 5148 001a 6C46     		mov	r4, sp
 5149 001c 18AD     		add	r5, sp, #96
 5150 001e 0FCD     		ldmia	r5!, {r0, r1, r2, r3}
 5151 0020 0FC4     		stmia	r4!, {r0, r1, r2, r3}
 5152 0022 0FCD     		ldmia	r5!, {r0, r1, r2, r3}
 5153 0024 0FC4     		stmia	r4!, {r0, r1, r2, r3}
 5154 0026 95E80F00 		ldmia	r5, {r0, r1, r2, r3}
 5155 002a 84E80F00 		stmia	r4, {r0, r1, r2, r3}
 5156 002e 14AB     		add	r3, sp, #80
 5157 0030 0FCB     		ldmia	r3, {r0, r1, r2, r3}
 5158 0032 FFF7FEFF 		bl	B3M_Read
 5159              	.LVL238:
 711:Src/B3M.c     **** 	return 0;
 712:Src/B3M.c     **** }
 5160              		.loc 1 712 0
 5161 0036 0020     		movs	r0, #0
 5162 0038 11B0     		add	sp, sp, #68
 5163              	.LCFI441:
 5164              		.cfi_def_cfa_offset 28
 5165              		@ sp needed
 5166 003a BDE83040 		pop	{r4, r5, lr}
 5167              	.LCFI442:
 5168              		.cfi_restore 14
 5169              		.cfi_restore 5
 5170              		.cfi_restore 4
 5171              		.cfi_def_cfa_offset 16
 5172 003e 04B0     		add	sp, sp, #16
 5173              	.LCFI443:
 5174              		.cfi_def_cfa_offset 0
ARM GAS  /tmp/cckyA7fG.s 			page 102


 5175 0040 7047     		bx	lr
 5176              		.cfi_endproc
 5177              	.LFE197:
 5179 0042 00BF     		.section	.text.B3M_DynamicFriction0_Write,"ax",%progbits
 5180              		.align	2
 5181              		.global	B3M_DynamicFriction0_Write
 5182              		.thumb
 5183              		.thumb_func
 5185              	B3M_DynamicFriction0_Write:
 5186              	.LFB198:
 713:Src/B3M.c     **** 
 714:Src/B3M.c     **** uint8_t B3M_DynamicFriction0_Write(UART_HandleTypeDef huart, uint8_t SERVO_ID, uint8_t NEW_DYNAMIC_
 715:Src/B3M.c     **** {
 5187              		.loc 1 715 0
 5188              		.cfi_startproc
 5189              		@ args = 72, pretend = 16, frame = 0
 5190              		@ frame_needed = 0, uses_anonymous_args = 0
 5191              	.LVL239:
 5192 0000 84B0     		sub	sp, sp, #16
 5193              	.LCFI444:
 5194              		.cfi_def_cfa_offset 16
 5195 0002 30B5     		push	{r4, r5, lr}
 5196              	.LCFI445:
 5197              		.cfi_def_cfa_offset 28
 5198              		.cfi_offset 4, -28
 5199              		.cfi_offset 5, -24
 5200              		.cfi_offset 14, -20
 5201 0004 91B0     		sub	sp, sp, #68
 5202              	.LCFI446:
 5203              		.cfi_def_cfa_offset 96
 5204 0006 14AC     		add	r4, sp, #80
 5205 0008 84E80F00 		stmia	r4, {r0, r1, r2, r3}
 716:Src/B3M.c     **** 	B3M_Write_2B(huart, SERVO_ID, NEW_DYNAMIC_FRICTION0, READ_LENGTH_2B);
 5206              		.loc 1 716 0
 5207 000c 0223     		movs	r3, #2
 5208 000e 0E93     		str	r3, [sp, #56]
 5209 0010 9DF89430 		ldrb	r3, [sp, #148]	@ zero_extendqisi2
 5210 0014 0D93     		str	r3, [sp, #52]
 5211 0016 9DF89030 		ldrb	r3, [sp, #144]	@ zero_extendqisi2
 5212 001a 0C93     		str	r3, [sp, #48]
 5213 001c 6C46     		mov	r4, sp
 5214 001e 18AD     		add	r5, sp, #96
 5215 0020 0FCD     		ldmia	r5!, {r0, r1, r2, r3}
 5216 0022 0FC4     		stmia	r4!, {r0, r1, r2, r3}
 5217 0024 0FCD     		ldmia	r5!, {r0, r1, r2, r3}
 5218 0026 0FC4     		stmia	r4!, {r0, r1, r2, r3}
 5219 0028 95E80F00 		ldmia	r5, {r0, r1, r2, r3}
 5220 002c 84E80F00 		stmia	r4, {r0, r1, r2, r3}
 5221 0030 14AB     		add	r3, sp, #80
 5222 0032 0FCB     		ldmia	r3, {r0, r1, r2, r3}
 5223 0034 FFF7FEFF 		bl	B3M_Write_2B
 5224              	.LVL240:
 717:Src/B3M.c     **** 	return 0;
 718:Src/B3M.c     **** }
 5225              		.loc 1 718 0
 5226 0038 0020     		movs	r0, #0
 5227 003a 11B0     		add	sp, sp, #68
ARM GAS  /tmp/cckyA7fG.s 			page 103


 5228              	.LCFI447:
 5229              		.cfi_def_cfa_offset 28
 5230              		@ sp needed
 5231 003c BDE83040 		pop	{r4, r5, lr}
 5232              	.LCFI448:
 5233              		.cfi_restore 14
 5234              		.cfi_restore 5
 5235              		.cfi_restore 4
 5236              		.cfi_def_cfa_offset 16
 5237 0040 04B0     		add	sp, sp, #16
 5238              	.LCFI449:
 5239              		.cfi_def_cfa_offset 0
 5240 0042 7047     		bx	lr
 5241              		.cfi_endproc
 5242              	.LFE198:
 5244              		.section	.text.B3M_KP1_Read,"ax",%progbits
 5245              		.align	2
 5246              		.global	B3M_KP1_Read
 5247              		.thumb
 5248              		.thumb_func
 5250              	B3M_KP1_Read:
 5251              	.LFB199:
 719:Src/B3M.c     **** 
 720:Src/B3M.c     **** uint8_t B3M_KP1_Read(UART_HandleTypeDef huart, uint8_t SERVO_ID)
 721:Src/B3M.c     **** {
 5252              		.loc 1 721 0
 5253              		.cfi_startproc
 5254              		@ args = 68, pretend = 16, frame = 0
 5255              		@ frame_needed = 0, uses_anonymous_args = 0
 5256              	.LVL241:
 5257 0000 84B0     		sub	sp, sp, #16
 5258              	.LCFI450:
 5259              		.cfi_def_cfa_offset 16
 5260 0002 30B5     		push	{r4, r5, lr}
 5261              	.LCFI451:
 5262              		.cfi_def_cfa_offset 28
 5263              		.cfi_offset 4, -28
 5264              		.cfi_offset 5, -24
 5265              		.cfi_offset 14, -20
 5266 0004 91B0     		sub	sp, sp, #68
 5267              	.LCFI452:
 5268              		.cfi_def_cfa_offset 96
 5269 0006 14AC     		add	r4, sp, #80
 5270 0008 84E80F00 		stmia	r4, {r0, r1, r2, r3}
 722:Src/B3M.c     **** 	B3M_Read(huart, SERVO_ID, CONTROL_KP1, READ_LENGTH_4B);
 5271              		.loc 1 722 0
 5272 000c 0423     		movs	r3, #4
 5273 000e 0E93     		str	r3, [sp, #56]
 5274 0010 6E23     		movs	r3, #110
 5275 0012 0D93     		str	r3, [sp, #52]
 5276 0014 9DF89030 		ldrb	r3, [sp, #144]	@ zero_extendqisi2
 5277 0018 0C93     		str	r3, [sp, #48]
 5278 001a 6C46     		mov	r4, sp
 5279 001c 18AD     		add	r5, sp, #96
 5280 001e 0FCD     		ldmia	r5!, {r0, r1, r2, r3}
 5281 0020 0FC4     		stmia	r4!, {r0, r1, r2, r3}
 5282 0022 0FCD     		ldmia	r5!, {r0, r1, r2, r3}
ARM GAS  /tmp/cckyA7fG.s 			page 104


 5283 0024 0FC4     		stmia	r4!, {r0, r1, r2, r3}
 5284 0026 95E80F00 		ldmia	r5, {r0, r1, r2, r3}
 5285 002a 84E80F00 		stmia	r4, {r0, r1, r2, r3}
 5286 002e 14AB     		add	r3, sp, #80
 5287 0030 0FCB     		ldmia	r3, {r0, r1, r2, r3}
 5288 0032 FFF7FEFF 		bl	B3M_Read
 5289              	.LVL242:
 723:Src/B3M.c     **** 	return 0;
 724:Src/B3M.c     **** }
 5290              		.loc 1 724 0
 5291 0036 0020     		movs	r0, #0
 5292 0038 11B0     		add	sp, sp, #68
 5293              	.LCFI453:
 5294              		.cfi_def_cfa_offset 28
 5295              		@ sp needed
 5296 003a BDE83040 		pop	{r4, r5, lr}
 5297              	.LCFI454:
 5298              		.cfi_restore 14
 5299              		.cfi_restore 5
 5300              		.cfi_restore 4
 5301              		.cfi_def_cfa_offset 16
 5302 003e 04B0     		add	sp, sp, #16
 5303              	.LCFI455:
 5304              		.cfi_def_cfa_offset 0
 5305 0040 7047     		bx	lr
 5306              		.cfi_endproc
 5307              	.LFE199:
 5309 0042 00BF     		.section	.text.B3M_KP1_Write,"ax",%progbits
 5310              		.align	2
 5311              		.global	B3M_KP1_Write
 5312              		.thumb
 5313              		.thumb_func
 5315              	B3M_KP1_Write:
 5316              	.LFB200:
 725:Src/B3M.c     **** 
 726:Src/B3M.c     **** uint8_t B3M_KP1_Write(UART_HandleTypeDef huart, uint8_t SERVO_ID, uint8_t NEW_KP1)
 727:Src/B3M.c     **** {
 5317              		.loc 1 727 0
 5318              		.cfi_startproc
 5319              		@ args = 72, pretend = 16, frame = 0
 5320              		@ frame_needed = 0, uses_anonymous_args = 0
 5321              	.LVL243:
 5322 0000 84B0     		sub	sp, sp, #16
 5323              	.LCFI456:
 5324              		.cfi_def_cfa_offset 16
 5325 0002 30B5     		push	{r4, r5, lr}
 5326              	.LCFI457:
 5327              		.cfi_def_cfa_offset 28
 5328              		.cfi_offset 4, -28
 5329              		.cfi_offset 5, -24
 5330              		.cfi_offset 14, -20
 5331 0004 91B0     		sub	sp, sp, #68
 5332              	.LCFI458:
 5333              		.cfi_def_cfa_offset 96
 5334 0006 14AC     		add	r4, sp, #80
 5335 0008 84E80F00 		stmia	r4, {r0, r1, r2, r3}
 728:Src/B3M.c     **** 	B3M_Write_4B(huart, SERVO_ID, NEW_KP1, CONTROL_KP1);
ARM GAS  /tmp/cckyA7fG.s 			page 105


 5336              		.loc 1 728 0
 5337 000c 6E23     		movs	r3, #110
 5338 000e 0E93     		str	r3, [sp, #56]
 5339 0010 9DF89430 		ldrb	r3, [sp, #148]	@ zero_extendqisi2
 5340 0014 0D93     		str	r3, [sp, #52]
 5341 0016 9DF89030 		ldrb	r3, [sp, #144]	@ zero_extendqisi2
 5342 001a 0C93     		str	r3, [sp, #48]
 5343 001c 6C46     		mov	r4, sp
 5344 001e 18AD     		add	r5, sp, #96
 5345 0020 0FCD     		ldmia	r5!, {r0, r1, r2, r3}
 5346 0022 0FC4     		stmia	r4!, {r0, r1, r2, r3}
 5347 0024 0FCD     		ldmia	r5!, {r0, r1, r2, r3}
 5348 0026 0FC4     		stmia	r4!, {r0, r1, r2, r3}
 5349 0028 95E80F00 		ldmia	r5, {r0, r1, r2, r3}
 5350 002c 84E80F00 		stmia	r4, {r0, r1, r2, r3}
 5351 0030 14AB     		add	r3, sp, #80
 5352 0032 0FCB     		ldmia	r3, {r0, r1, r2, r3}
 5353 0034 FFF7FEFF 		bl	B3M_Write_4B
 5354              	.LVL244:
 729:Src/B3M.c     **** 	return 0;
 730:Src/B3M.c     **** }
 5355              		.loc 1 730 0
 5356 0038 0020     		movs	r0, #0
 5357 003a 11B0     		add	sp, sp, #68
 5358              	.LCFI459:
 5359              		.cfi_def_cfa_offset 28
 5360              		@ sp needed
 5361 003c BDE83040 		pop	{r4, r5, lr}
 5362              	.LCFI460:
 5363              		.cfi_restore 14
 5364              		.cfi_restore 5
 5365              		.cfi_restore 4
 5366              		.cfi_def_cfa_offset 16
 5367 0040 04B0     		add	sp, sp, #16
 5368              	.LCFI461:
 5369              		.cfi_def_cfa_offset 0
 5370 0042 7047     		bx	lr
 5371              		.cfi_endproc
 5372              	.LFE200:
 5374              		.section	.text.B3M_KD1_Read,"ax",%progbits
 5375              		.align	2
 5376              		.global	B3M_KD1_Read
 5377              		.thumb
 5378              		.thumb_func
 5380              	B3M_KD1_Read:
 5381              	.LFB201:
 731:Src/B3M.c     **** 
 732:Src/B3M.c     **** uint8_t B3M_KD1_Read(UART_HandleTypeDef huart, uint8_t SERVO_ID)
 733:Src/B3M.c     **** {
 5382              		.loc 1 733 0
 5383              		.cfi_startproc
 5384              		@ args = 68, pretend = 16, frame = 0
 5385              		@ frame_needed = 0, uses_anonymous_args = 0
 5386              	.LVL245:
 5387 0000 84B0     		sub	sp, sp, #16
 5388              	.LCFI462:
 5389              		.cfi_def_cfa_offset 16
ARM GAS  /tmp/cckyA7fG.s 			page 106


 5390 0002 30B5     		push	{r4, r5, lr}
 5391              	.LCFI463:
 5392              		.cfi_def_cfa_offset 28
 5393              		.cfi_offset 4, -28
 5394              		.cfi_offset 5, -24
 5395              		.cfi_offset 14, -20
 5396 0004 91B0     		sub	sp, sp, #68
 5397              	.LCFI464:
 5398              		.cfi_def_cfa_offset 96
 5399 0006 14AC     		add	r4, sp, #80
 5400 0008 84E80F00 		stmia	r4, {r0, r1, r2, r3}
 734:Src/B3M.c     **** 	B3M_Read(huart, SERVO_ID, CONTROL_KD1, READ_LENGTH_4B);
 5401              		.loc 1 734 0
 5402 000c 0423     		movs	r3, #4
 5403 000e 0E93     		str	r3, [sp, #56]
 5404 0010 7223     		movs	r3, #114
 5405 0012 0D93     		str	r3, [sp, #52]
 5406 0014 9DF89030 		ldrb	r3, [sp, #144]	@ zero_extendqisi2
 5407 0018 0C93     		str	r3, [sp, #48]
 5408 001a 6C46     		mov	r4, sp
 5409 001c 18AD     		add	r5, sp, #96
 5410 001e 0FCD     		ldmia	r5!, {r0, r1, r2, r3}
 5411 0020 0FC4     		stmia	r4!, {r0, r1, r2, r3}
 5412 0022 0FCD     		ldmia	r5!, {r0, r1, r2, r3}
 5413 0024 0FC4     		stmia	r4!, {r0, r1, r2, r3}
 5414 0026 95E80F00 		ldmia	r5, {r0, r1, r2, r3}
 5415 002a 84E80F00 		stmia	r4, {r0, r1, r2, r3}
 5416 002e 14AB     		add	r3, sp, #80
 5417 0030 0FCB     		ldmia	r3, {r0, r1, r2, r3}
 5418 0032 FFF7FEFF 		bl	B3M_Read
 5419              	.LVL246:
 735:Src/B3M.c     **** 	return 0;
 736:Src/B3M.c     **** }
 5420              		.loc 1 736 0
 5421 0036 0020     		movs	r0, #0
 5422 0038 11B0     		add	sp, sp, #68
 5423              	.LCFI465:
 5424              		.cfi_def_cfa_offset 28
 5425              		@ sp needed
 5426 003a BDE83040 		pop	{r4, r5, lr}
 5427              	.LCFI466:
 5428              		.cfi_restore 14
 5429              		.cfi_restore 5
 5430              		.cfi_restore 4
 5431              		.cfi_def_cfa_offset 16
 5432 003e 04B0     		add	sp, sp, #16
 5433              	.LCFI467:
 5434              		.cfi_def_cfa_offset 0
 5435 0040 7047     		bx	lr
 5436              		.cfi_endproc
 5437              	.LFE201:
 5439 0042 00BF     		.section	.text.B3M_KD1_Write,"ax",%progbits
 5440              		.align	2
 5441              		.global	B3M_KD1_Write
 5442              		.thumb
 5443              		.thumb_func
 5445              	B3M_KD1_Write:
ARM GAS  /tmp/cckyA7fG.s 			page 107


 5446              	.LFB202:
 737:Src/B3M.c     **** 
 738:Src/B3M.c     **** uint8_t B3M_KD1_Write(UART_HandleTypeDef huart, uint8_t SERVO_ID, uint8_t NEW_KD1)
 739:Src/B3M.c     **** {
 5447              		.loc 1 739 0
 5448              		.cfi_startproc
 5449              		@ args = 72, pretend = 16, frame = 0
 5450              		@ frame_needed = 0, uses_anonymous_args = 0
 5451              	.LVL247:
 5452 0000 84B0     		sub	sp, sp, #16
 5453              	.LCFI468:
 5454              		.cfi_def_cfa_offset 16
 5455 0002 30B5     		push	{r4, r5, lr}
 5456              	.LCFI469:
 5457              		.cfi_def_cfa_offset 28
 5458              		.cfi_offset 4, -28
 5459              		.cfi_offset 5, -24
 5460              		.cfi_offset 14, -20
 5461 0004 91B0     		sub	sp, sp, #68
 5462              	.LCFI470:
 5463              		.cfi_def_cfa_offset 96
 5464 0006 14AC     		add	r4, sp, #80
 5465 0008 84E80F00 		stmia	r4, {r0, r1, r2, r3}
 740:Src/B3M.c     **** 	B3M_Write_4B(huart, SERVO_ID, NEW_KD1, CONTROL_KD1);
 5466              		.loc 1 740 0
 5467 000c 7223     		movs	r3, #114
 5468 000e 0E93     		str	r3, [sp, #56]
 5469 0010 9DF89430 		ldrb	r3, [sp, #148]	@ zero_extendqisi2
 5470 0014 0D93     		str	r3, [sp, #52]
 5471 0016 9DF89030 		ldrb	r3, [sp, #144]	@ zero_extendqisi2
 5472 001a 0C93     		str	r3, [sp, #48]
 5473 001c 6C46     		mov	r4, sp
 5474 001e 18AD     		add	r5, sp, #96
 5475 0020 0FCD     		ldmia	r5!, {r0, r1, r2, r3}
 5476 0022 0FC4     		stmia	r4!, {r0, r1, r2, r3}
 5477 0024 0FCD     		ldmia	r5!, {r0, r1, r2, r3}
 5478 0026 0FC4     		stmia	r4!, {r0, r1, r2, r3}
 5479 0028 95E80F00 		ldmia	r5, {r0, r1, r2, r3}
 5480 002c 84E80F00 		stmia	r4, {r0, r1, r2, r3}
 5481 0030 14AB     		add	r3, sp, #80
 5482 0032 0FCB     		ldmia	r3, {r0, r1, r2, r3}
 5483 0034 FFF7FEFF 		bl	B3M_Write_4B
 5484              	.LVL248:
 741:Src/B3M.c     **** 	return 0;
 742:Src/B3M.c     **** }
 5485              		.loc 1 742 0
 5486 0038 0020     		movs	r0, #0
 5487 003a 11B0     		add	sp, sp, #68
 5488              	.LCFI471:
 5489              		.cfi_def_cfa_offset 28
 5490              		@ sp needed
 5491 003c BDE83040 		pop	{r4, r5, lr}
 5492              	.LCFI472:
 5493              		.cfi_restore 14
 5494              		.cfi_restore 5
 5495              		.cfi_restore 4
 5496              		.cfi_def_cfa_offset 16
ARM GAS  /tmp/cckyA7fG.s 			page 108


 5497 0040 04B0     		add	sp, sp, #16
 5498              	.LCFI473:
 5499              		.cfi_def_cfa_offset 0
 5500 0042 7047     		bx	lr
 5501              		.cfi_endproc
 5502              	.LFE202:
 5504              		.section	.text.B3M_KI1_Read,"ax",%progbits
 5505              		.align	2
 5506              		.global	B3M_KI1_Read
 5507              		.thumb
 5508              		.thumb_func
 5510              	B3M_KI1_Read:
 5511              	.LFB203:
 743:Src/B3M.c     **** 
 744:Src/B3M.c     **** uint8_t B3M_KI1_Read(UART_HandleTypeDef huart, uint8_t SERVO_ID)
 745:Src/B3M.c     **** {
 5512              		.loc 1 745 0
 5513              		.cfi_startproc
 5514              		@ args = 68, pretend = 16, frame = 0
 5515              		@ frame_needed = 0, uses_anonymous_args = 0
 5516              	.LVL249:
 5517 0000 84B0     		sub	sp, sp, #16
 5518              	.LCFI474:
 5519              		.cfi_def_cfa_offset 16
 5520 0002 30B5     		push	{r4, r5, lr}
 5521              	.LCFI475:
 5522              		.cfi_def_cfa_offset 28
 5523              		.cfi_offset 4, -28
 5524              		.cfi_offset 5, -24
 5525              		.cfi_offset 14, -20
 5526 0004 91B0     		sub	sp, sp, #68
 5527              	.LCFI476:
 5528              		.cfi_def_cfa_offset 96
 5529 0006 14AC     		add	r4, sp, #80
 5530 0008 84E80F00 		stmia	r4, {r0, r1, r2, r3}
 746:Src/B3M.c     **** 	B3M_Read(huart, SERVO_ID, CONTROL_KI1, READ_LENGTH_4B);
 5531              		.loc 1 746 0
 5532 000c 0423     		movs	r3, #4
 5533 000e 0E93     		str	r3, [sp, #56]
 5534 0010 7623     		movs	r3, #118
 5535 0012 0D93     		str	r3, [sp, #52]
 5536 0014 9DF89030 		ldrb	r3, [sp, #144]	@ zero_extendqisi2
 5537 0018 0C93     		str	r3, [sp, #48]
 5538 001a 6C46     		mov	r4, sp
 5539 001c 18AD     		add	r5, sp, #96
 5540 001e 0FCD     		ldmia	r5!, {r0, r1, r2, r3}
 5541 0020 0FC4     		stmia	r4!, {r0, r1, r2, r3}
 5542 0022 0FCD     		ldmia	r5!, {r0, r1, r2, r3}
 5543 0024 0FC4     		stmia	r4!, {r0, r1, r2, r3}
 5544 0026 95E80F00 		ldmia	r5, {r0, r1, r2, r3}
 5545 002a 84E80F00 		stmia	r4, {r0, r1, r2, r3}
 5546 002e 14AB     		add	r3, sp, #80
 5547 0030 0FCB     		ldmia	r3, {r0, r1, r2, r3}
 5548 0032 FFF7FEFF 		bl	B3M_Read
 5549              	.LVL250:
 747:Src/B3M.c     **** 	return 0;
 748:Src/B3M.c     **** }
ARM GAS  /tmp/cckyA7fG.s 			page 109


 5550              		.loc 1 748 0
 5551 0036 0020     		movs	r0, #0
 5552 0038 11B0     		add	sp, sp, #68
 5553              	.LCFI477:
 5554              		.cfi_def_cfa_offset 28
 5555              		@ sp needed
 5556 003a BDE83040 		pop	{r4, r5, lr}
 5557              	.LCFI478:
 5558              		.cfi_restore 14
 5559              		.cfi_restore 5
 5560              		.cfi_restore 4
 5561              		.cfi_def_cfa_offset 16
 5562 003e 04B0     		add	sp, sp, #16
 5563              	.LCFI479:
 5564              		.cfi_def_cfa_offset 0
 5565 0040 7047     		bx	lr
 5566              		.cfi_endproc
 5567              	.LFE203:
 5569 0042 00BF     		.section	.text.B3M_KI1_Write,"ax",%progbits
 5570              		.align	2
 5571              		.global	B3M_KI1_Write
 5572              		.thumb
 5573              		.thumb_func
 5575              	B3M_KI1_Write:
 5576              	.LFB204:
 749:Src/B3M.c     **** 
 750:Src/B3M.c     **** uint8_t B3M_KI1_Write(UART_HandleTypeDef huart, uint8_t SERVO_ID, uint8_t NEW_KI1)
 751:Src/B3M.c     **** {
 5577              		.loc 1 751 0
 5578              		.cfi_startproc
 5579              		@ args = 72, pretend = 16, frame = 0
 5580              		@ frame_needed = 0, uses_anonymous_args = 0
 5581              	.LVL251:
 5582 0000 84B0     		sub	sp, sp, #16
 5583              	.LCFI480:
 5584              		.cfi_def_cfa_offset 16
 5585 0002 30B5     		push	{r4, r5, lr}
 5586              	.LCFI481:
 5587              		.cfi_def_cfa_offset 28
 5588              		.cfi_offset 4, -28
 5589              		.cfi_offset 5, -24
 5590              		.cfi_offset 14, -20
 5591 0004 91B0     		sub	sp, sp, #68
 5592              	.LCFI482:
 5593              		.cfi_def_cfa_offset 96
 5594 0006 14AC     		add	r4, sp, #80
 5595 0008 84E80F00 		stmia	r4, {r0, r1, r2, r3}
 752:Src/B3M.c     **** 	B3M_Write_4B(huart, SERVO_ID, NEW_KI1, CONTROL_KI1);
 5596              		.loc 1 752 0
 5597 000c 7623     		movs	r3, #118
 5598 000e 0E93     		str	r3, [sp, #56]
 5599 0010 9DF89430 		ldrb	r3, [sp, #148]	@ zero_extendqisi2
 5600 0014 0D93     		str	r3, [sp, #52]
 5601 0016 9DF89030 		ldrb	r3, [sp, #144]	@ zero_extendqisi2
 5602 001a 0C93     		str	r3, [sp, #48]
 5603 001c 6C46     		mov	r4, sp
 5604 001e 18AD     		add	r5, sp, #96
ARM GAS  /tmp/cckyA7fG.s 			page 110


 5605 0020 0FCD     		ldmia	r5!, {r0, r1, r2, r3}
 5606 0022 0FC4     		stmia	r4!, {r0, r1, r2, r3}
 5607 0024 0FCD     		ldmia	r5!, {r0, r1, r2, r3}
 5608 0026 0FC4     		stmia	r4!, {r0, r1, r2, r3}
 5609 0028 95E80F00 		ldmia	r5, {r0, r1, r2, r3}
 5610 002c 84E80F00 		stmia	r4, {r0, r1, r2, r3}
 5611 0030 14AB     		add	r3, sp, #80
 5612 0032 0FCB     		ldmia	r3, {r0, r1, r2, r3}
 5613 0034 FFF7FEFF 		bl	B3M_Write_4B
 5614              	.LVL252:
 753:Src/B3M.c     **** 	return 0;
 754:Src/B3M.c     **** }
 5615              		.loc 1 754 0
 5616 0038 0020     		movs	r0, #0
 5617 003a 11B0     		add	sp, sp, #68
 5618              	.LCFI483:
 5619              		.cfi_def_cfa_offset 28
 5620              		@ sp needed
 5621 003c BDE83040 		pop	{r4, r5, lr}
 5622              	.LCFI484:
 5623              		.cfi_restore 14
 5624              		.cfi_restore 5
 5625              		.cfi_restore 4
 5626              		.cfi_def_cfa_offset 16
 5627 0040 04B0     		add	sp, sp, #16
 5628              	.LCFI485:
 5629              		.cfi_def_cfa_offset 0
 5630 0042 7047     		bx	lr
 5631              		.cfi_endproc
 5632              	.LFE204:
 5634              		.section	.text.B3M_StaticFriction1_Read,"ax",%progbits
 5635              		.align	2
 5636              		.global	B3M_StaticFriction1_Read
 5637              		.thumb
 5638              		.thumb_func
 5640              	B3M_StaticFriction1_Read:
 5641              	.LFB205:
 755:Src/B3M.c     **** 
 756:Src/B3M.c     **** uint8_t B3M_StaticFriction1_Read(UART_HandleTypeDef huart, uint8_t SERVO_ID)
 757:Src/B3M.c     **** {
 5642              		.loc 1 757 0
 5643              		.cfi_startproc
 5644              		@ args = 68, pretend = 16, frame = 0
 5645              		@ frame_needed = 0, uses_anonymous_args = 0
 5646              	.LVL253:
 5647 0000 84B0     		sub	sp, sp, #16
 5648              	.LCFI486:
 5649              		.cfi_def_cfa_offset 16
 5650 0002 30B5     		push	{r4, r5, lr}
 5651              	.LCFI487:
 5652              		.cfi_def_cfa_offset 28
 5653              		.cfi_offset 4, -28
 5654              		.cfi_offset 5, -24
 5655              		.cfi_offset 14, -20
 5656 0004 91B0     		sub	sp, sp, #68
 5657              	.LCFI488:
 5658              		.cfi_def_cfa_offset 96
ARM GAS  /tmp/cckyA7fG.s 			page 111


 5659 0006 14AC     		add	r4, sp, #80
 5660 0008 84E80F00 		stmia	r4, {r0, r1, r2, r3}
 758:Src/B3M.c     **** 	B3M_Read(huart, SERVO_ID, CONTROL_STATIC_FRICTION1, READ_LENGTH_2B);
 5661              		.loc 1 758 0
 5662 000c 0223     		movs	r3, #2
 5663 000e 0E93     		str	r3, [sp, #56]
 5664 0010 7A23     		movs	r3, #122
 5665 0012 0D93     		str	r3, [sp, #52]
 5666 0014 9DF89030 		ldrb	r3, [sp, #144]	@ zero_extendqisi2
 5667 0018 0C93     		str	r3, [sp, #48]
 5668 001a 6C46     		mov	r4, sp
 5669 001c 18AD     		add	r5, sp, #96
 5670 001e 0FCD     		ldmia	r5!, {r0, r1, r2, r3}
 5671 0020 0FC4     		stmia	r4!, {r0, r1, r2, r3}
 5672 0022 0FCD     		ldmia	r5!, {r0, r1, r2, r3}
 5673 0024 0FC4     		stmia	r4!, {r0, r1, r2, r3}
 5674 0026 95E80F00 		ldmia	r5, {r0, r1, r2, r3}
 5675 002a 84E80F00 		stmia	r4, {r0, r1, r2, r3}
 5676 002e 14AB     		add	r3, sp, #80
 5677 0030 0FCB     		ldmia	r3, {r0, r1, r2, r3}
 5678 0032 FFF7FEFF 		bl	B3M_Read
 5679              	.LVL254:
 759:Src/B3M.c     **** 	return 0;
 760:Src/B3M.c     **** }
 5680              		.loc 1 760 0
 5681 0036 0020     		movs	r0, #0
 5682 0038 11B0     		add	sp, sp, #68
 5683              	.LCFI489:
 5684              		.cfi_def_cfa_offset 28
 5685              		@ sp needed
 5686 003a BDE83040 		pop	{r4, r5, lr}
 5687              	.LCFI490:
 5688              		.cfi_restore 14
 5689              		.cfi_restore 5
 5690              		.cfi_restore 4
 5691              		.cfi_def_cfa_offset 16
 5692 003e 04B0     		add	sp, sp, #16
 5693              	.LCFI491:
 5694              		.cfi_def_cfa_offset 0
 5695 0040 7047     		bx	lr
 5696              		.cfi_endproc
 5697              	.LFE205:
 5699 0042 00BF     		.section	.text.B3M_StaticFriction1_Write,"ax",%progbits
 5700              		.align	2
 5701              		.global	B3M_StaticFriction1_Write
 5702              		.thumb
 5703              		.thumb_func
 5705              	B3M_StaticFriction1_Write:
 5706              	.LFB206:
 761:Src/B3M.c     **** 
 762:Src/B3M.c     **** uint8_t B3M_StaticFriction1_Write(UART_HandleTypeDef huart, uint8_t SERVO_ID, uint8_t NEW_STATIC_FR
 763:Src/B3M.c     **** {
 5707              		.loc 1 763 0
 5708              		.cfi_startproc
 5709              		@ args = 72, pretend = 16, frame = 0
 5710              		@ frame_needed = 0, uses_anonymous_args = 0
 5711              	.LVL255:
ARM GAS  /tmp/cckyA7fG.s 			page 112


 5712 0000 84B0     		sub	sp, sp, #16
 5713              	.LCFI492:
 5714              		.cfi_def_cfa_offset 16
 5715 0002 30B5     		push	{r4, r5, lr}
 5716              	.LCFI493:
 5717              		.cfi_def_cfa_offset 28
 5718              		.cfi_offset 4, -28
 5719              		.cfi_offset 5, -24
 5720              		.cfi_offset 14, -20
 5721 0004 91B0     		sub	sp, sp, #68
 5722              	.LCFI494:
 5723              		.cfi_def_cfa_offset 96
 5724 0006 14AC     		add	r4, sp, #80
 5725 0008 84E80F00 		stmia	r4, {r0, r1, r2, r3}
 764:Src/B3M.c     **** 	B3M_Write_2B(huart, SERVO_ID, NEW_STATIC_FRICTION1, CONTROL_STATIC_FRICTION1);
 5726              		.loc 1 764 0
 5727 000c 7A23     		movs	r3, #122
 5728 000e 0E93     		str	r3, [sp, #56]
 5729 0010 9DF89430 		ldrb	r3, [sp, #148]	@ zero_extendqisi2
 5730 0014 0D93     		str	r3, [sp, #52]
 5731 0016 9DF89030 		ldrb	r3, [sp, #144]	@ zero_extendqisi2
 5732 001a 0C93     		str	r3, [sp, #48]
 5733 001c 6C46     		mov	r4, sp
 5734 001e 18AD     		add	r5, sp, #96
 5735 0020 0FCD     		ldmia	r5!, {r0, r1, r2, r3}
 5736 0022 0FC4     		stmia	r4!, {r0, r1, r2, r3}
 5737 0024 0FCD     		ldmia	r5!, {r0, r1, r2, r3}
 5738 0026 0FC4     		stmia	r4!, {r0, r1, r2, r3}
 5739 0028 95E80F00 		ldmia	r5, {r0, r1, r2, r3}
 5740 002c 84E80F00 		stmia	r4, {r0, r1, r2, r3}
 5741 0030 14AB     		add	r3, sp, #80
 5742 0032 0FCB     		ldmia	r3, {r0, r1, r2, r3}
 5743 0034 FFF7FEFF 		bl	B3M_Write_2B
 5744              	.LVL256:
 765:Src/B3M.c     **** 	return 0;
 766:Src/B3M.c     **** }
 5745              		.loc 1 766 0
 5746 0038 0020     		movs	r0, #0
 5747 003a 11B0     		add	sp, sp, #68
 5748              	.LCFI495:
 5749              		.cfi_def_cfa_offset 28
 5750              		@ sp needed
 5751 003c BDE83040 		pop	{r4, r5, lr}
 5752              	.LCFI496:
 5753              		.cfi_restore 14
 5754              		.cfi_restore 5
 5755              		.cfi_restore 4
 5756              		.cfi_def_cfa_offset 16
 5757 0040 04B0     		add	sp, sp, #16
 5758              	.LCFI497:
 5759              		.cfi_def_cfa_offset 0
 5760 0042 7047     		bx	lr
 5761              		.cfi_endproc
 5762              	.LFE206:
 5764              		.section	.text.B3M_DynamicFriction1_Read,"ax",%progbits
 5765              		.align	2
 5766              		.global	B3M_DynamicFriction1_Read
ARM GAS  /tmp/cckyA7fG.s 			page 113


 5767              		.thumb
 5768              		.thumb_func
 5770              	B3M_DynamicFriction1_Read:
 5771              	.LFB207:
 767:Src/B3M.c     **** 
 768:Src/B3M.c     **** uint8_t B3M_DynamicFriction1_Read(UART_HandleTypeDef huart, uint8_t SERVO_ID)
 769:Src/B3M.c     **** {
 5772              		.loc 1 769 0
 5773              		.cfi_startproc
 5774              		@ args = 68, pretend = 16, frame = 0
 5775              		@ frame_needed = 0, uses_anonymous_args = 0
 5776              	.LVL257:
 5777 0000 84B0     		sub	sp, sp, #16
 5778              	.LCFI498:
 5779              		.cfi_def_cfa_offset 16
 5780 0002 30B5     		push	{r4, r5, lr}
 5781              	.LCFI499:
 5782              		.cfi_def_cfa_offset 28
 5783              		.cfi_offset 4, -28
 5784              		.cfi_offset 5, -24
 5785              		.cfi_offset 14, -20
 5786 0004 91B0     		sub	sp, sp, #68
 5787              	.LCFI500:
 5788              		.cfi_def_cfa_offset 96
 5789 0006 14AC     		add	r4, sp, #80
 5790 0008 84E80F00 		stmia	r4, {r0, r1, r2, r3}
 770:Src/B3M.c     **** 	B3M_Read(huart, SERVO_ID, CONTROL_DYNAMIC_FRICTION1, READ_LENGTH_2B);
 5791              		.loc 1 770 0
 5792 000c 0223     		movs	r3, #2
 5793 000e 0E93     		str	r3, [sp, #56]
 5794 0010 7C23     		movs	r3, #124
 5795 0012 0D93     		str	r3, [sp, #52]
 5796 0014 9DF89030 		ldrb	r3, [sp, #144]	@ zero_extendqisi2
 5797 0018 0C93     		str	r3, [sp, #48]
 5798 001a 6C46     		mov	r4, sp
 5799 001c 18AD     		add	r5, sp, #96
 5800 001e 0FCD     		ldmia	r5!, {r0, r1, r2, r3}
 5801 0020 0FC4     		stmia	r4!, {r0, r1, r2, r3}
 5802 0022 0FCD     		ldmia	r5!, {r0, r1, r2, r3}
 5803 0024 0FC4     		stmia	r4!, {r0, r1, r2, r3}
 5804 0026 95E80F00 		ldmia	r5, {r0, r1, r2, r3}
 5805 002a 84E80F00 		stmia	r4, {r0, r1, r2, r3}
 5806 002e 14AB     		add	r3, sp, #80
 5807 0030 0FCB     		ldmia	r3, {r0, r1, r2, r3}
 5808 0032 FFF7FEFF 		bl	B3M_Read
 5809              	.LVL258:
 771:Src/B3M.c     **** 	return 0;
 772:Src/B3M.c     **** }
 5810              		.loc 1 772 0
 5811 0036 0020     		movs	r0, #0
 5812 0038 11B0     		add	sp, sp, #68
 5813              	.LCFI501:
 5814              		.cfi_def_cfa_offset 28
 5815              		@ sp needed
 5816 003a BDE83040 		pop	{r4, r5, lr}
 5817              	.LCFI502:
 5818              		.cfi_restore 14
ARM GAS  /tmp/cckyA7fG.s 			page 114


 5819              		.cfi_restore 5
 5820              		.cfi_restore 4
 5821              		.cfi_def_cfa_offset 16
 5822 003e 04B0     		add	sp, sp, #16
 5823              	.LCFI503:
 5824              		.cfi_def_cfa_offset 0
 5825 0040 7047     		bx	lr
 5826              		.cfi_endproc
 5827              	.LFE207:
 5829 0042 00BF     		.section	.text.B3M_DynamicFriction1_Write,"ax",%progbits
 5830              		.align	2
 5831              		.global	B3M_DynamicFriction1_Write
 5832              		.thumb
 5833              		.thumb_func
 5835              	B3M_DynamicFriction1_Write:
 5836              	.LFB208:
 773:Src/B3M.c     **** 
 774:Src/B3M.c     **** uint8_t B3M_DynamicFriction1_Write(UART_HandleTypeDef huart, uint8_t SERVO_ID, uint8_t NEW_DYNAMIC_
 775:Src/B3M.c     **** {
 5837              		.loc 1 775 0
 5838              		.cfi_startproc
 5839              		@ args = 72, pretend = 16, frame = 0
 5840              		@ frame_needed = 0, uses_anonymous_args = 0
 5841              	.LVL259:
 5842 0000 84B0     		sub	sp, sp, #16
 5843              	.LCFI504:
 5844              		.cfi_def_cfa_offset 16
 5845 0002 30B5     		push	{r4, r5, lr}
 5846              	.LCFI505:
 5847              		.cfi_def_cfa_offset 28
 5848              		.cfi_offset 4, -28
 5849              		.cfi_offset 5, -24
 5850              		.cfi_offset 14, -20
 5851 0004 91B0     		sub	sp, sp, #68
 5852              	.LCFI506:
 5853              		.cfi_def_cfa_offset 96
 5854 0006 14AC     		add	r4, sp, #80
 5855 0008 84E80F00 		stmia	r4, {r0, r1, r2, r3}
 776:Src/B3M.c     **** 	B3M_Write_2B(huart, SERVO_ID, NEW_DYNAMIC_FRICTION1, CONTROL_DYNAMIC_FRICTION1);
 5856              		.loc 1 776 0
 5857 000c 7C23     		movs	r3, #124
 5858 000e 0E93     		str	r3, [sp, #56]
 5859 0010 9DF89430 		ldrb	r3, [sp, #148]	@ zero_extendqisi2
 5860 0014 0D93     		str	r3, [sp, #52]
 5861 0016 9DF89030 		ldrb	r3, [sp, #144]	@ zero_extendqisi2
 5862 001a 0C93     		str	r3, [sp, #48]
 5863 001c 6C46     		mov	r4, sp
 5864 001e 18AD     		add	r5, sp, #96
 5865 0020 0FCD     		ldmia	r5!, {r0, r1, r2, r3}
 5866 0022 0FC4     		stmia	r4!, {r0, r1, r2, r3}
 5867 0024 0FCD     		ldmia	r5!, {r0, r1, r2, r3}
 5868 0026 0FC4     		stmia	r4!, {r0, r1, r2, r3}
 5869 0028 95E80F00 		ldmia	r5, {r0, r1, r2, r3}
 5870 002c 84E80F00 		stmia	r4, {r0, r1, r2, r3}
 5871 0030 14AB     		add	r3, sp, #80
 5872 0032 0FCB     		ldmia	r3, {r0, r1, r2, r3}
 5873 0034 FFF7FEFF 		bl	B3M_Write_2B
ARM GAS  /tmp/cckyA7fG.s 			page 115


 5874              	.LVL260:
 777:Src/B3M.c     **** 	return 0;
 778:Src/B3M.c     **** }
 5875              		.loc 1 778 0
 5876 0038 0020     		movs	r0, #0
 5877 003a 11B0     		add	sp, sp, #68
 5878              	.LCFI507:
 5879              		.cfi_def_cfa_offset 28
 5880              		@ sp needed
 5881 003c BDE83040 		pop	{r4, r5, lr}
 5882              	.LCFI508:
 5883              		.cfi_restore 14
 5884              		.cfi_restore 5
 5885              		.cfi_restore 4
 5886              		.cfi_def_cfa_offset 16
 5887 0040 04B0     		add	sp, sp, #16
 5888              	.LCFI509:
 5889              		.cfi_def_cfa_offset 0
 5890 0042 7047     		bx	lr
 5891              		.cfi_endproc
 5892              	.LFE208:
 5894              		.section	.text.B3M_KP2_Read,"ax",%progbits
 5895              		.align	2
 5896              		.global	B3M_KP2_Read
 5897              		.thumb
 5898              		.thumb_func
 5900              	B3M_KP2_Read:
 5901              	.LFB209:
 779:Src/B3M.c     **** //
 780:Src/B3M.c     **** uint8_t B3M_KP2_Read(UART_HandleTypeDef huart, uint8_t SERVO_ID)
 781:Src/B3M.c     **** {
 5902              		.loc 1 781 0
 5903              		.cfi_startproc
 5904              		@ args = 68, pretend = 16, frame = 0
 5905              		@ frame_needed = 0, uses_anonymous_args = 0
 5906              	.LVL261:
 5907 0000 84B0     		sub	sp, sp, #16
 5908              	.LCFI510:
 5909              		.cfi_def_cfa_offset 16
 5910 0002 30B5     		push	{r4, r5, lr}
 5911              	.LCFI511:
 5912              		.cfi_def_cfa_offset 28
 5913              		.cfi_offset 4, -28
 5914              		.cfi_offset 5, -24
 5915              		.cfi_offset 14, -20
 5916 0004 91B0     		sub	sp, sp, #68
 5917              	.LCFI512:
 5918              		.cfi_def_cfa_offset 96
 5919 0006 14AC     		add	r4, sp, #80
 5920 0008 84E80F00 		stmia	r4, {r0, r1, r2, r3}
 782:Src/B3M.c     **** 	B3M_Read(huart, SERVO_ID, CONTROL_KP2, READ_LENGTH_4B);
 5921              		.loc 1 782 0
 5922 000c 0423     		movs	r3, #4
 5923 000e 0E93     		str	r3, [sp, #56]
 5924 0010 7E23     		movs	r3, #126
 5925 0012 0D93     		str	r3, [sp, #52]
 5926 0014 9DF89030 		ldrb	r3, [sp, #144]	@ zero_extendqisi2
ARM GAS  /tmp/cckyA7fG.s 			page 116


 5927 0018 0C93     		str	r3, [sp, #48]
 5928 001a 6C46     		mov	r4, sp
 5929 001c 18AD     		add	r5, sp, #96
 5930 001e 0FCD     		ldmia	r5!, {r0, r1, r2, r3}
 5931 0020 0FC4     		stmia	r4!, {r0, r1, r2, r3}
 5932 0022 0FCD     		ldmia	r5!, {r0, r1, r2, r3}
 5933 0024 0FC4     		stmia	r4!, {r0, r1, r2, r3}
 5934 0026 95E80F00 		ldmia	r5, {r0, r1, r2, r3}
 5935 002a 84E80F00 		stmia	r4, {r0, r1, r2, r3}
 5936 002e 14AB     		add	r3, sp, #80
 5937 0030 0FCB     		ldmia	r3, {r0, r1, r2, r3}
 5938 0032 FFF7FEFF 		bl	B3M_Read
 5939              	.LVL262:
 783:Src/B3M.c     **** 	return 0;
 784:Src/B3M.c     **** }
 5940              		.loc 1 784 0
 5941 0036 0020     		movs	r0, #0
 5942 0038 11B0     		add	sp, sp, #68
 5943              	.LCFI513:
 5944              		.cfi_def_cfa_offset 28
 5945              		@ sp needed
 5946 003a BDE83040 		pop	{r4, r5, lr}
 5947              	.LCFI514:
 5948              		.cfi_restore 14
 5949              		.cfi_restore 5
 5950              		.cfi_restore 4
 5951              		.cfi_def_cfa_offset 16
 5952 003e 04B0     		add	sp, sp, #16
 5953              	.LCFI515:
 5954              		.cfi_def_cfa_offset 0
 5955 0040 7047     		bx	lr
 5956              		.cfi_endproc
 5957              	.LFE209:
 5959 0042 00BF     		.section	.text.B3M_KP2_Write,"ax",%progbits
 5960              		.align	2
 5961              		.global	B3M_KP2_Write
 5962              		.thumb
 5963              		.thumb_func
 5965              	B3M_KP2_Write:
 5966              	.LFB210:
 785:Src/B3M.c     **** uint8_t B3M_KP2_Write(UART_HandleTypeDef huart, uint8_t SERVO_ID, uint8_t NEW_KP2)
 786:Src/B3M.c     **** {
 5967              		.loc 1 786 0
 5968              		.cfi_startproc
 5969              		@ args = 72, pretend = 16, frame = 0
 5970              		@ frame_needed = 0, uses_anonymous_args = 0
 5971              	.LVL263:
 5972 0000 84B0     		sub	sp, sp, #16
 5973              	.LCFI516:
 5974              		.cfi_def_cfa_offset 16
 5975 0002 30B5     		push	{r4, r5, lr}
 5976              	.LCFI517:
 5977              		.cfi_def_cfa_offset 28
 5978              		.cfi_offset 4, -28
 5979              		.cfi_offset 5, -24
 5980              		.cfi_offset 14, -20
 5981 0004 91B0     		sub	sp, sp, #68
ARM GAS  /tmp/cckyA7fG.s 			page 117


 5982              	.LCFI518:
 5983              		.cfi_def_cfa_offset 96
 5984 0006 14AC     		add	r4, sp, #80
 5985 0008 84E80F00 		stmia	r4, {r0, r1, r2, r3}
 787:Src/B3M.c     **** 	B3M_Write_4B(huart, SERVO_ID, NEW_KP2, CONTROL_KP2);
 5986              		.loc 1 787 0
 5987 000c 7E23     		movs	r3, #126
 5988 000e 0E93     		str	r3, [sp, #56]
 5989 0010 9DF89430 		ldrb	r3, [sp, #148]	@ zero_extendqisi2
 5990 0014 0D93     		str	r3, [sp, #52]
 5991 0016 9DF89030 		ldrb	r3, [sp, #144]	@ zero_extendqisi2
 5992 001a 0C93     		str	r3, [sp, #48]
 5993 001c 6C46     		mov	r4, sp
 5994 001e 18AD     		add	r5, sp, #96
 5995 0020 0FCD     		ldmia	r5!, {r0, r1, r2, r3}
 5996 0022 0FC4     		stmia	r4!, {r0, r1, r2, r3}
 5997 0024 0FCD     		ldmia	r5!, {r0, r1, r2, r3}
 5998 0026 0FC4     		stmia	r4!, {r0, r1, r2, r3}
 5999 0028 95E80F00 		ldmia	r5, {r0, r1, r2, r3}
 6000 002c 84E80F00 		stmia	r4, {r0, r1, r2, r3}
 6001 0030 14AB     		add	r3, sp, #80
 6002 0032 0FCB     		ldmia	r3, {r0, r1, r2, r3}
 6003 0034 FFF7FEFF 		bl	B3M_Write_4B
 6004              	.LVL264:
 788:Src/B3M.c     **** 	return 0;
 789:Src/B3M.c     **** }
 6005              		.loc 1 789 0
 6006 0038 0020     		movs	r0, #0
 6007 003a 11B0     		add	sp, sp, #68
 6008              	.LCFI519:
 6009              		.cfi_def_cfa_offset 28
 6010              		@ sp needed
 6011 003c BDE83040 		pop	{r4, r5, lr}
 6012              	.LCFI520:
 6013              		.cfi_restore 14
 6014              		.cfi_restore 5
 6015              		.cfi_restore 4
 6016              		.cfi_def_cfa_offset 16
 6017 0040 04B0     		add	sp, sp, #16
 6018              	.LCFI521:
 6019              		.cfi_def_cfa_offset 0
 6020 0042 7047     		bx	lr
 6021              		.cfi_endproc
 6022              	.LFE210:
 6024              		.section	.text.B3M_KD2_Read,"ax",%progbits
 6025              		.align	2
 6026              		.global	B3M_KD2_Read
 6027              		.thumb
 6028              		.thumb_func
 6030              	B3M_KD2_Read:
 6031              	.LFB211:
 790:Src/B3M.c     **** uint8_t B3M_KD2_Read(UART_HandleTypeDef huart, uint8_t SERVO_ID)
 791:Src/B3M.c     **** {
 6032              		.loc 1 791 0
 6033              		.cfi_startproc
 6034              		@ args = 68, pretend = 16, frame = 0
 6035              		@ frame_needed = 0, uses_anonymous_args = 0
ARM GAS  /tmp/cckyA7fG.s 			page 118


 6036              	.LVL265:
 6037 0000 84B0     		sub	sp, sp, #16
 6038              	.LCFI522:
 6039              		.cfi_def_cfa_offset 16
 6040 0002 30B5     		push	{r4, r5, lr}
 6041              	.LCFI523:
 6042              		.cfi_def_cfa_offset 28
 6043              		.cfi_offset 4, -28
 6044              		.cfi_offset 5, -24
 6045              		.cfi_offset 14, -20
 6046 0004 91B0     		sub	sp, sp, #68
 6047              	.LCFI524:
 6048              		.cfi_def_cfa_offset 96
 6049 0006 14AC     		add	r4, sp, #80
 6050 0008 84E80F00 		stmia	r4, {r0, r1, r2, r3}
 792:Src/B3M.c     **** 	B3M_Read(huart, SERVO_ID, CONTROL_KD2, READ_LENGTH_4B);
 6051              		.loc 1 792 0
 6052 000c 0423     		movs	r3, #4
 6053 000e 0E93     		str	r3, [sp, #56]
 6054 0010 8223     		movs	r3, #130
 6055 0012 0D93     		str	r3, [sp, #52]
 6056 0014 9DF89030 		ldrb	r3, [sp, #144]	@ zero_extendqisi2
 6057 0018 0C93     		str	r3, [sp, #48]
 6058 001a 6C46     		mov	r4, sp
 6059 001c 18AD     		add	r5, sp, #96
 6060 001e 0FCD     		ldmia	r5!, {r0, r1, r2, r3}
 6061 0020 0FC4     		stmia	r4!, {r0, r1, r2, r3}
 6062 0022 0FCD     		ldmia	r5!, {r0, r1, r2, r3}
 6063 0024 0FC4     		stmia	r4!, {r0, r1, r2, r3}
 6064 0026 95E80F00 		ldmia	r5, {r0, r1, r2, r3}
 6065 002a 84E80F00 		stmia	r4, {r0, r1, r2, r3}
 6066 002e 14AB     		add	r3, sp, #80
 6067 0030 0FCB     		ldmia	r3, {r0, r1, r2, r3}
 6068 0032 FFF7FEFF 		bl	B3M_Read
 6069              	.LVL266:
 793:Src/B3M.c     **** 	return 0;
 794:Src/B3M.c     **** }
 6070              		.loc 1 794 0
 6071 0036 0020     		movs	r0, #0
 6072 0038 11B0     		add	sp, sp, #68
 6073              	.LCFI525:
 6074              		.cfi_def_cfa_offset 28
 6075              		@ sp needed
 6076 003a BDE83040 		pop	{r4, r5, lr}
 6077              	.LCFI526:
 6078              		.cfi_restore 14
 6079              		.cfi_restore 5
 6080              		.cfi_restore 4
 6081              		.cfi_def_cfa_offset 16
 6082 003e 04B0     		add	sp, sp, #16
 6083              	.LCFI527:
 6084              		.cfi_def_cfa_offset 0
 6085 0040 7047     		bx	lr
 6086              		.cfi_endproc
 6087              	.LFE211:
 6089 0042 00BF     		.section	.text.B3M_KD2_Write,"ax",%progbits
 6090              		.align	2
ARM GAS  /tmp/cckyA7fG.s 			page 119


 6091              		.global	B3M_KD2_Write
 6092              		.thumb
 6093              		.thumb_func
 6095              	B3M_KD2_Write:
 6096              	.LFB212:
 795:Src/B3M.c     **** uint8_t B3M_KD2_Write(UART_HandleTypeDef huart, uint8_t SERVO_ID, uint8_t NEW_KD2)
 796:Src/B3M.c     **** {
 6097              		.loc 1 796 0
 6098              		.cfi_startproc
 6099              		@ args = 72, pretend = 16, frame = 0
 6100              		@ frame_needed = 0, uses_anonymous_args = 0
 6101              	.LVL267:
 6102 0000 84B0     		sub	sp, sp, #16
 6103              	.LCFI528:
 6104              		.cfi_def_cfa_offset 16
 6105 0002 30B5     		push	{r4, r5, lr}
 6106              	.LCFI529:
 6107              		.cfi_def_cfa_offset 28
 6108              		.cfi_offset 4, -28
 6109              		.cfi_offset 5, -24
 6110              		.cfi_offset 14, -20
 6111 0004 91B0     		sub	sp, sp, #68
 6112              	.LCFI530:
 6113              		.cfi_def_cfa_offset 96
 6114 0006 14AC     		add	r4, sp, #80
 6115 0008 84E80F00 		stmia	r4, {r0, r1, r2, r3}
 797:Src/B3M.c     **** 	B3M_Write_4B(huart, SERVO_ID, NEW_KD2, CONTROL_KD2);
 6116              		.loc 1 797 0
 6117 000c 8223     		movs	r3, #130
 6118 000e 0E93     		str	r3, [sp, #56]
 6119 0010 9DF89430 		ldrb	r3, [sp, #148]	@ zero_extendqisi2
 6120 0014 0D93     		str	r3, [sp, #52]
 6121 0016 9DF89030 		ldrb	r3, [sp, #144]	@ zero_extendqisi2
 6122 001a 0C93     		str	r3, [sp, #48]
 6123 001c 6C46     		mov	r4, sp
 6124 001e 18AD     		add	r5, sp, #96
 6125 0020 0FCD     		ldmia	r5!, {r0, r1, r2, r3}
 6126 0022 0FC4     		stmia	r4!, {r0, r1, r2, r3}
 6127 0024 0FCD     		ldmia	r5!, {r0, r1, r2, r3}
 6128 0026 0FC4     		stmia	r4!, {r0, r1, r2, r3}
 6129 0028 95E80F00 		ldmia	r5, {r0, r1, r2, r3}
 6130 002c 84E80F00 		stmia	r4, {r0, r1, r2, r3}
 6131 0030 14AB     		add	r3, sp, #80
 6132 0032 0FCB     		ldmia	r3, {r0, r1, r2, r3}
 6133 0034 FFF7FEFF 		bl	B3M_Write_4B
 6134              	.LVL268:
 798:Src/B3M.c     **** 	return 0;
 799:Src/B3M.c     **** }
 6135              		.loc 1 799 0
 6136 0038 0020     		movs	r0, #0
 6137 003a 11B0     		add	sp, sp, #68
 6138              	.LCFI531:
 6139              		.cfi_def_cfa_offset 28
 6140              		@ sp needed
 6141 003c BDE83040 		pop	{r4, r5, lr}
 6142              	.LCFI532:
 6143              		.cfi_restore 14
ARM GAS  /tmp/cckyA7fG.s 			page 120


 6144              		.cfi_restore 5
 6145              		.cfi_restore 4
 6146              		.cfi_def_cfa_offset 16
 6147 0040 04B0     		add	sp, sp, #16
 6148              	.LCFI533:
 6149              		.cfi_def_cfa_offset 0
 6150 0042 7047     		bx	lr
 6151              		.cfi_endproc
 6152              	.LFE212:
 6154              		.section	.text.B3M_KI2_Read,"ax",%progbits
 6155              		.align	2
 6156              		.global	B3M_KI2_Read
 6157              		.thumb
 6158              		.thumb_func
 6160              	B3M_KI2_Read:
 6161              	.LFB213:
 800:Src/B3M.c     **** uint8_t B3M_KI2_Read(UART_HandleTypeDef huart, uint8_t SERVO_ID)
 801:Src/B3M.c     **** {
 6162              		.loc 1 801 0
 6163              		.cfi_startproc
 6164              		@ args = 68, pretend = 16, frame = 0
 6165              		@ frame_needed = 0, uses_anonymous_args = 0
 6166              	.LVL269:
 6167 0000 84B0     		sub	sp, sp, #16
 6168              	.LCFI534:
 6169              		.cfi_def_cfa_offset 16
 6170 0002 30B5     		push	{r4, r5, lr}
 6171              	.LCFI535:
 6172              		.cfi_def_cfa_offset 28
 6173              		.cfi_offset 4, -28
 6174              		.cfi_offset 5, -24
 6175              		.cfi_offset 14, -20
 6176 0004 91B0     		sub	sp, sp, #68
 6177              	.LCFI536:
 6178              		.cfi_def_cfa_offset 96
 6179 0006 14AC     		add	r4, sp, #80
 6180 0008 84E80F00 		stmia	r4, {r0, r1, r2, r3}
 802:Src/B3M.c     **** 	B3M_Read(huart, SERVO_ID, CONTROL_KI2, READ_LENGTH_4B);
 6181              		.loc 1 802 0
 6182 000c 0423     		movs	r3, #4
 6183 000e 0E93     		str	r3, [sp, #56]
 6184 0010 8623     		movs	r3, #134
 6185 0012 0D93     		str	r3, [sp, #52]
 6186 0014 9DF89030 		ldrb	r3, [sp, #144]	@ zero_extendqisi2
 6187 0018 0C93     		str	r3, [sp, #48]
 6188 001a 6C46     		mov	r4, sp
 6189 001c 18AD     		add	r5, sp, #96
 6190 001e 0FCD     		ldmia	r5!, {r0, r1, r2, r3}
 6191 0020 0FC4     		stmia	r4!, {r0, r1, r2, r3}
 6192 0022 0FCD     		ldmia	r5!, {r0, r1, r2, r3}
 6193 0024 0FC4     		stmia	r4!, {r0, r1, r2, r3}
 6194 0026 95E80F00 		ldmia	r5, {r0, r1, r2, r3}
 6195 002a 84E80F00 		stmia	r4, {r0, r1, r2, r3}
 6196 002e 14AB     		add	r3, sp, #80
 6197 0030 0FCB     		ldmia	r3, {r0, r1, r2, r3}
 6198 0032 FFF7FEFF 		bl	B3M_Read
 6199              	.LVL270:
ARM GAS  /tmp/cckyA7fG.s 			page 121


 803:Src/B3M.c     **** 	return 0;
 804:Src/B3M.c     **** }
 6200              		.loc 1 804 0
 6201 0036 0020     		movs	r0, #0
 6202 0038 11B0     		add	sp, sp, #68
 6203              	.LCFI537:
 6204              		.cfi_def_cfa_offset 28
 6205              		@ sp needed
 6206 003a BDE83040 		pop	{r4, r5, lr}
 6207              	.LCFI538:
 6208              		.cfi_restore 14
 6209              		.cfi_restore 5
 6210              		.cfi_restore 4
 6211              		.cfi_def_cfa_offset 16
 6212 003e 04B0     		add	sp, sp, #16
 6213              	.LCFI539:
 6214              		.cfi_def_cfa_offset 0
 6215 0040 7047     		bx	lr
 6216              		.cfi_endproc
 6217              	.LFE213:
 6219 0042 00BF     		.section	.text.B3M_KI2_Write,"ax",%progbits
 6220              		.align	2
 6221              		.global	B3M_KI2_Write
 6222              		.thumb
 6223              		.thumb_func
 6225              	B3M_KI2_Write:
 6226              	.LFB214:
 805:Src/B3M.c     **** uint8_t B3M_KI2_Write(UART_HandleTypeDef huart, uint8_t SERVO_ID, uint8_t NEW_KI2)
 806:Src/B3M.c     **** {
 6227              		.loc 1 806 0
 6228              		.cfi_startproc
 6229              		@ args = 72, pretend = 16, frame = 0
 6230              		@ frame_needed = 0, uses_anonymous_args = 0
 6231              	.LVL271:
 6232 0000 84B0     		sub	sp, sp, #16
 6233              	.LCFI540:
 6234              		.cfi_def_cfa_offset 16
 6235 0002 30B5     		push	{r4, r5, lr}
 6236              	.LCFI541:
 6237              		.cfi_def_cfa_offset 28
 6238              		.cfi_offset 4, -28
 6239              		.cfi_offset 5, -24
 6240              		.cfi_offset 14, -20
 6241 0004 91B0     		sub	sp, sp, #68
 6242              	.LCFI542:
 6243              		.cfi_def_cfa_offset 96
 6244 0006 14AC     		add	r4, sp, #80
 6245 0008 84E80F00 		stmia	r4, {r0, r1, r2, r3}
 807:Src/B3M.c     **** 	B3M_Write_4B(huart, SERVO_ID, NEW_KI2, CONTROL_KI2);
 6246              		.loc 1 807 0
 6247 000c 8623     		movs	r3, #134
 6248 000e 0E93     		str	r3, [sp, #56]
 6249 0010 9DF89430 		ldrb	r3, [sp, #148]	@ zero_extendqisi2
 6250 0014 0D93     		str	r3, [sp, #52]
 6251 0016 9DF89030 		ldrb	r3, [sp, #144]	@ zero_extendqisi2
 6252 001a 0C93     		str	r3, [sp, #48]
 6253 001c 6C46     		mov	r4, sp
ARM GAS  /tmp/cckyA7fG.s 			page 122


 6254 001e 18AD     		add	r5, sp, #96
 6255 0020 0FCD     		ldmia	r5!, {r0, r1, r2, r3}
 6256 0022 0FC4     		stmia	r4!, {r0, r1, r2, r3}
 6257 0024 0FCD     		ldmia	r5!, {r0, r1, r2, r3}
 6258 0026 0FC4     		stmia	r4!, {r0, r1, r2, r3}
 6259 0028 95E80F00 		ldmia	r5, {r0, r1, r2, r3}
 6260 002c 84E80F00 		stmia	r4, {r0, r1, r2, r3}
 6261 0030 14AB     		add	r3, sp, #80
 6262 0032 0FCB     		ldmia	r3, {r0, r1, r2, r3}
 6263 0034 FFF7FEFF 		bl	B3M_Write_4B
 6264              	.LVL272:
 808:Src/B3M.c     **** 	return 0;
 809:Src/B3M.c     **** }
 6265              		.loc 1 809 0
 6266 0038 0020     		movs	r0, #0
 6267 003a 11B0     		add	sp, sp, #68
 6268              	.LCFI543:
 6269              		.cfi_def_cfa_offset 28
 6270              		@ sp needed
 6271 003c BDE83040 		pop	{r4, r5, lr}
 6272              	.LCFI544:
 6273              		.cfi_restore 14
 6274              		.cfi_restore 5
 6275              		.cfi_restore 4
 6276              		.cfi_def_cfa_offset 16
 6277 0040 04B0     		add	sp, sp, #16
 6278              	.LCFI545:
 6279              		.cfi_def_cfa_offset 0
 6280 0042 7047     		bx	lr
 6281              		.cfi_endproc
 6282              	.LFE214:
 6284              		.section	.text.B3M_StaticFriction2_Read,"ax",%progbits
 6285              		.align	2
 6286              		.global	B3M_StaticFriction2_Read
 6287              		.thumb
 6288              		.thumb_func
 6290              	B3M_StaticFriction2_Read:
 6291              	.LFB215:
 810:Src/B3M.c     **** uint8_t B3M_StaticFriction2_Read(UART_HandleTypeDef huart, uint8_t SERVO_ID)
 811:Src/B3M.c     **** {
 6292              		.loc 1 811 0
 6293              		.cfi_startproc
 6294              		@ args = 68, pretend = 16, frame = 0
 6295              		@ frame_needed = 0, uses_anonymous_args = 0
 6296              	.LVL273:
 6297 0000 84B0     		sub	sp, sp, #16
 6298              	.LCFI546:
 6299              		.cfi_def_cfa_offset 16
 6300 0002 30B5     		push	{r4, r5, lr}
 6301              	.LCFI547:
 6302              		.cfi_def_cfa_offset 28
 6303              		.cfi_offset 4, -28
 6304              		.cfi_offset 5, -24
 6305              		.cfi_offset 14, -20
 6306 0004 91B0     		sub	sp, sp, #68
 6307              	.LCFI548:
 6308              		.cfi_def_cfa_offset 96
ARM GAS  /tmp/cckyA7fG.s 			page 123


 6309 0006 14AC     		add	r4, sp, #80
 6310 0008 84E80F00 		stmia	r4, {r0, r1, r2, r3}
 812:Src/B3M.c     **** 	B3M_Read(huart, SERVO_ID, CONTROL_STATIC_FRICTION2, READ_LENGTH_2B);
 6311              		.loc 1 812 0
 6312 000c 0223     		movs	r3, #2
 6313 000e 0E93     		str	r3, [sp, #56]
 6314 0010 8A23     		movs	r3, #138
 6315 0012 0D93     		str	r3, [sp, #52]
 6316 0014 9DF89030 		ldrb	r3, [sp, #144]	@ zero_extendqisi2
 6317 0018 0C93     		str	r3, [sp, #48]
 6318 001a 6C46     		mov	r4, sp
 6319 001c 18AD     		add	r5, sp, #96
 6320 001e 0FCD     		ldmia	r5!, {r0, r1, r2, r3}
 6321 0020 0FC4     		stmia	r4!, {r0, r1, r2, r3}
 6322 0022 0FCD     		ldmia	r5!, {r0, r1, r2, r3}
 6323 0024 0FC4     		stmia	r4!, {r0, r1, r2, r3}
 6324 0026 95E80F00 		ldmia	r5, {r0, r1, r2, r3}
 6325 002a 84E80F00 		stmia	r4, {r0, r1, r2, r3}
 6326 002e 14AB     		add	r3, sp, #80
 6327 0030 0FCB     		ldmia	r3, {r0, r1, r2, r3}
 6328 0032 FFF7FEFF 		bl	B3M_Read
 6329              	.LVL274:
 813:Src/B3M.c     **** 	return 0;
 814:Src/B3M.c     **** }
 6330              		.loc 1 814 0
 6331 0036 0020     		movs	r0, #0
 6332 0038 11B0     		add	sp, sp, #68
 6333              	.LCFI549:
 6334              		.cfi_def_cfa_offset 28
 6335              		@ sp needed
 6336 003a BDE83040 		pop	{r4, r5, lr}
 6337              	.LCFI550:
 6338              		.cfi_restore 14
 6339              		.cfi_restore 5
 6340              		.cfi_restore 4
 6341              		.cfi_def_cfa_offset 16
 6342 003e 04B0     		add	sp, sp, #16
 6343              	.LCFI551:
 6344              		.cfi_def_cfa_offset 0
 6345 0040 7047     		bx	lr
 6346              		.cfi_endproc
 6347              	.LFE215:
 6349 0042 00BF     		.section	.text.B3M_StaticFriction2_Write,"ax",%progbits
 6350              		.align	2
 6351              		.global	B3M_StaticFriction2_Write
 6352              		.thumb
 6353              		.thumb_func
 6355              	B3M_StaticFriction2_Write:
 6356              	.LFB216:
 815:Src/B3M.c     **** uint8_t B3M_StaticFriction2_Write(UART_HandleTypeDef huart, uint8_t SERVO_ID, uint8_t NEW_STATIC_FR
 816:Src/B3M.c     **** {
 6357              		.loc 1 816 0
 6358              		.cfi_startproc
 6359              		@ args = 72, pretend = 16, frame = 0
 6360              		@ frame_needed = 0, uses_anonymous_args = 0
 6361              	.LVL275:
 6362 0000 84B0     		sub	sp, sp, #16
ARM GAS  /tmp/cckyA7fG.s 			page 124


 6363              	.LCFI552:
 6364              		.cfi_def_cfa_offset 16
 6365 0002 30B5     		push	{r4, r5, lr}
 6366              	.LCFI553:
 6367              		.cfi_def_cfa_offset 28
 6368              		.cfi_offset 4, -28
 6369              		.cfi_offset 5, -24
 6370              		.cfi_offset 14, -20
 6371 0004 91B0     		sub	sp, sp, #68
 6372              	.LCFI554:
 6373              		.cfi_def_cfa_offset 96
 6374 0006 14AC     		add	r4, sp, #80
 6375 0008 84E80F00 		stmia	r4, {r0, r1, r2, r3}
 817:Src/B3M.c     **** 	B3M_Write_2B(huart, SERVO_ID, NEW_STATIC_FRICTION2, CONTROL_STATIC_FRICTION2);
 6376              		.loc 1 817 0
 6377 000c 8A23     		movs	r3, #138
 6378 000e 0E93     		str	r3, [sp, #56]
 6379 0010 9DF89430 		ldrb	r3, [sp, #148]	@ zero_extendqisi2
 6380 0014 0D93     		str	r3, [sp, #52]
 6381 0016 9DF89030 		ldrb	r3, [sp, #144]	@ zero_extendqisi2
 6382 001a 0C93     		str	r3, [sp, #48]
 6383 001c 6C46     		mov	r4, sp
 6384 001e 18AD     		add	r5, sp, #96
 6385 0020 0FCD     		ldmia	r5!, {r0, r1, r2, r3}
 6386 0022 0FC4     		stmia	r4!, {r0, r1, r2, r3}
 6387 0024 0FCD     		ldmia	r5!, {r0, r1, r2, r3}
 6388 0026 0FC4     		stmia	r4!, {r0, r1, r2, r3}
 6389 0028 95E80F00 		ldmia	r5, {r0, r1, r2, r3}
 6390 002c 84E80F00 		stmia	r4, {r0, r1, r2, r3}
 6391 0030 14AB     		add	r3, sp, #80
 6392 0032 0FCB     		ldmia	r3, {r0, r1, r2, r3}
 6393 0034 FFF7FEFF 		bl	B3M_Write_2B
 6394              	.LVL276:
 818:Src/B3M.c     **** 	return 0;
 819:Src/B3M.c     **** }
 6395              		.loc 1 819 0
 6396 0038 0020     		movs	r0, #0
 6397 003a 11B0     		add	sp, sp, #68
 6398              	.LCFI555:
 6399              		.cfi_def_cfa_offset 28
 6400              		@ sp needed
 6401 003c BDE83040 		pop	{r4, r5, lr}
 6402              	.LCFI556:
 6403              		.cfi_restore 14
 6404              		.cfi_restore 5
 6405              		.cfi_restore 4
 6406              		.cfi_def_cfa_offset 16
 6407 0040 04B0     		add	sp, sp, #16
 6408              	.LCFI557:
 6409              		.cfi_def_cfa_offset 0
 6410 0042 7047     		bx	lr
 6411              		.cfi_endproc
 6412              	.LFE216:
 6414              		.section	.text.B3M_DynamicFriction2_Read,"ax",%progbits
 6415              		.align	2
 6416              		.global	B3M_DynamicFriction2_Read
 6417              		.thumb
ARM GAS  /tmp/cckyA7fG.s 			page 125


 6418              		.thumb_func
 6420              	B3M_DynamicFriction2_Read:
 6421              	.LFB217:
 820:Src/B3M.c     **** uint8_t B3M_DynamicFriction2_Read(UART_HandleTypeDef huart, uint8_t SERVO_ID)
 821:Src/B3M.c     **** {
 6422              		.loc 1 821 0
 6423              		.cfi_startproc
 6424              		@ args = 68, pretend = 16, frame = 0
 6425              		@ frame_needed = 0, uses_anonymous_args = 0
 6426              	.LVL277:
 6427 0000 84B0     		sub	sp, sp, #16
 6428              	.LCFI558:
 6429              		.cfi_def_cfa_offset 16
 6430 0002 30B5     		push	{r4, r5, lr}
 6431              	.LCFI559:
 6432              		.cfi_def_cfa_offset 28
 6433              		.cfi_offset 4, -28
 6434              		.cfi_offset 5, -24
 6435              		.cfi_offset 14, -20
 6436 0004 91B0     		sub	sp, sp, #68
 6437              	.LCFI560:
 6438              		.cfi_def_cfa_offset 96
 6439 0006 14AC     		add	r4, sp, #80
 6440 0008 84E80F00 		stmia	r4, {r0, r1, r2, r3}
 822:Src/B3M.c     **** 	B3M_Read(huart, SERVO_ID, CONTROL_DYNAMIC_FRICTION2, READ_LENGTH_2B);
 6441              		.loc 1 822 0
 6442 000c 0223     		movs	r3, #2
 6443 000e 0E93     		str	r3, [sp, #56]
 6444 0010 8C23     		movs	r3, #140
 6445 0012 0D93     		str	r3, [sp, #52]
 6446 0014 9DF89030 		ldrb	r3, [sp, #144]	@ zero_extendqisi2
 6447 0018 0C93     		str	r3, [sp, #48]
 6448 001a 6C46     		mov	r4, sp
 6449 001c 18AD     		add	r5, sp, #96
 6450 001e 0FCD     		ldmia	r5!, {r0, r1, r2, r3}
 6451 0020 0FC4     		stmia	r4!, {r0, r1, r2, r3}
 6452 0022 0FCD     		ldmia	r5!, {r0, r1, r2, r3}
 6453 0024 0FC4     		stmia	r4!, {r0, r1, r2, r3}
 6454 0026 95E80F00 		ldmia	r5, {r0, r1, r2, r3}
 6455 002a 84E80F00 		stmia	r4, {r0, r1, r2, r3}
 6456 002e 14AB     		add	r3, sp, #80
 6457 0030 0FCB     		ldmia	r3, {r0, r1, r2, r3}
 6458 0032 FFF7FEFF 		bl	B3M_Read
 6459              	.LVL278:
 823:Src/B3M.c     **** 	return 0;
 824:Src/B3M.c     **** }
 6460              		.loc 1 824 0
 6461 0036 0020     		movs	r0, #0
 6462 0038 11B0     		add	sp, sp, #68
 6463              	.LCFI561:
 6464              		.cfi_def_cfa_offset 28
 6465              		@ sp needed
 6466 003a BDE83040 		pop	{r4, r5, lr}
 6467              	.LCFI562:
 6468              		.cfi_restore 14
 6469              		.cfi_restore 5
 6470              		.cfi_restore 4
ARM GAS  /tmp/cckyA7fG.s 			page 126


 6471              		.cfi_def_cfa_offset 16
 6472 003e 04B0     		add	sp, sp, #16
 6473              	.LCFI563:
 6474              		.cfi_def_cfa_offset 0
 6475 0040 7047     		bx	lr
 6476              		.cfi_endproc
 6477              	.LFE217:
 6479 0042 00BF     		.section	.text.B3M_DynamicFriction2_Write,"ax",%progbits
 6480              		.align	2
 6481              		.global	B3M_DynamicFriction2_Write
 6482              		.thumb
 6483              		.thumb_func
 6485              	B3M_DynamicFriction2_Write:
 6486              	.LFB218:
 825:Src/B3M.c     **** uint8_t B3M_DynamicFriction2_Write(UART_HandleTypeDef huart, uint8_t SERVO_ID, uint8_t NEW_DYNAMIC_
 826:Src/B3M.c     **** {
 6487              		.loc 1 826 0
 6488              		.cfi_startproc
 6489              		@ args = 72, pretend = 16, frame = 0
 6490              		@ frame_needed = 0, uses_anonymous_args = 0
 6491              	.LVL279:
 6492 0000 84B0     		sub	sp, sp, #16
 6493              	.LCFI564:
 6494              		.cfi_def_cfa_offset 16
 6495 0002 30B5     		push	{r4, r5, lr}
 6496              	.LCFI565:
 6497              		.cfi_def_cfa_offset 28
 6498              		.cfi_offset 4, -28
 6499              		.cfi_offset 5, -24
 6500              		.cfi_offset 14, -20
 6501 0004 91B0     		sub	sp, sp, #68
 6502              	.LCFI566:
 6503              		.cfi_def_cfa_offset 96
 6504 0006 14AC     		add	r4, sp, #80
 6505 0008 84E80F00 		stmia	r4, {r0, r1, r2, r3}
 827:Src/B3M.c     **** 	B3M_Write_2B(huart, SERVO_ID, NEW_DYNAMIC_FRICTION2, CONTROL_DYNAMIC_FRICTION2);
 6506              		.loc 1 827 0
 6507 000c 8C23     		movs	r3, #140
 6508 000e 0E93     		str	r3, [sp, #56]
 6509 0010 9DF89430 		ldrb	r3, [sp, #148]	@ zero_extendqisi2
 6510 0014 0D93     		str	r3, [sp, #52]
 6511 0016 9DF89030 		ldrb	r3, [sp, #144]	@ zero_extendqisi2
 6512 001a 0C93     		str	r3, [sp, #48]
 6513 001c 6C46     		mov	r4, sp
 6514 001e 18AD     		add	r5, sp, #96
 6515 0020 0FCD     		ldmia	r5!, {r0, r1, r2, r3}
 6516 0022 0FC4     		stmia	r4!, {r0, r1, r2, r3}
 6517 0024 0FCD     		ldmia	r5!, {r0, r1, r2, r3}
 6518 0026 0FC4     		stmia	r4!, {r0, r1, r2, r3}
 6519 0028 95E80F00 		ldmia	r5, {r0, r1, r2, r3}
 6520 002c 84E80F00 		stmia	r4, {r0, r1, r2, r3}
 6521 0030 14AB     		add	r3, sp, #80
 6522 0032 0FCB     		ldmia	r3, {r0, r1, r2, r3}
 6523 0034 FFF7FEFF 		bl	B3M_Write_2B
 6524              	.LVL280:
 828:Src/B3M.c     **** 	return 0;
 829:Src/B3M.c     **** }
ARM GAS  /tmp/cckyA7fG.s 			page 127


 6525              		.loc 1 829 0
 6526 0038 0020     		movs	r0, #0
 6527 003a 11B0     		add	sp, sp, #68
 6528              	.LCFI567:
 6529              		.cfi_def_cfa_offset 28
 6530              		@ sp needed
 6531 003c BDE83040 		pop	{r4, r5, lr}
 6532              	.LCFI568:
 6533              		.cfi_restore 14
 6534              		.cfi_restore 5
 6535              		.cfi_restore 4
 6536              		.cfi_def_cfa_offset 16
 6537 0040 04B0     		add	sp, sp, #16
 6538              	.LCFI569:
 6539              		.cfi_def_cfa_offset 0
 6540 0042 7047     		bx	lr
 6541              		.cfi_endproc
 6542              	.LFE218:
 6544              		.section	.text.B3M_StatusBaseADDR_ReadOnly,"ax",%progbits
 6545              		.align	2
 6546              		.global	B3M_StatusBaseADDR_ReadOnly
 6547              		.thumb
 6548              		.thumb_func
 6550              	B3M_StatusBaseADDR_ReadOnly:
 6551              	.LFB219:
 830:Src/B3M.c     **** 
 831:Src/B3M.c     **** /** Error Status Area Address'
 832:Src/B3M.c     **** */
 833:Src/B3M.c     **** 
 834:Src/B3M.c     **** uint8_t B3M_StatusBaseADDR_ReadOnly(UART_HandleTypeDef huart, uint8_t SERVO_ID)
 835:Src/B3M.c     **** {
 6552              		.loc 1 835 0
 6553              		.cfi_startproc
 6554              		@ args = 68, pretend = 16, frame = 0
 6555              		@ frame_needed = 0, uses_anonymous_args = 0
 6556              	.LVL281:
 6557 0000 84B0     		sub	sp, sp, #16
 6558              	.LCFI570:
 6559              		.cfi_def_cfa_offset 16
 6560 0002 30B5     		push	{r4, r5, lr}
 6561              	.LCFI571:
 6562              		.cfi_def_cfa_offset 28
 6563              		.cfi_offset 4, -28
 6564              		.cfi_offset 5, -24
 6565              		.cfi_offset 14, -20
 6566 0004 91B0     		sub	sp, sp, #68
 6567              	.LCFI572:
 6568              		.cfi_def_cfa_offset 96
 6569 0006 14AC     		add	r4, sp, #80
 6570 0008 84E80F00 		stmia	r4, {r0, r1, r2, r3}
 836:Src/B3M.c     **** 	B3M_Read(huart, SERVO_ID, ERROR_STATUS_BASE_ADDR, READ_LENGTH_1B);
 6571              		.loc 1 836 0
 6572 000c 0123     		movs	r3, #1
 6573 000e 0E93     		str	r3, [sp, #56]
 6574 0010 9D23     		movs	r3, #157
 6575 0012 0D93     		str	r3, [sp, #52]
 6576 0014 9DF89030 		ldrb	r3, [sp, #144]	@ zero_extendqisi2
ARM GAS  /tmp/cckyA7fG.s 			page 128


 6577 0018 0C93     		str	r3, [sp, #48]
 6578 001a 6C46     		mov	r4, sp
 6579 001c 18AD     		add	r5, sp, #96
 6580 001e 0FCD     		ldmia	r5!, {r0, r1, r2, r3}
 6581 0020 0FC4     		stmia	r4!, {r0, r1, r2, r3}
 6582 0022 0FCD     		ldmia	r5!, {r0, r1, r2, r3}
 6583 0024 0FC4     		stmia	r4!, {r0, r1, r2, r3}
 6584 0026 95E80F00 		ldmia	r5, {r0, r1, r2, r3}
 6585 002a 84E80F00 		stmia	r4, {r0, r1, r2, r3}
 6586 002e 14AB     		add	r3, sp, #80
 6587 0030 0FCB     		ldmia	r3, {r0, r1, r2, r3}
 6588 0032 FFF7FEFF 		bl	B3M_Read
 6589              	.LVL282:
 837:Src/B3M.c     **** 	return 0;
 838:Src/B3M.c     **** }
 6590              		.loc 1 838 0
 6591 0036 0020     		movs	r0, #0
 6592 0038 11B0     		add	sp, sp, #68
 6593              	.LCFI573:
 6594              		.cfi_def_cfa_offset 28
 6595              		@ sp needed
 6596 003a BDE83040 		pop	{r4, r5, lr}
 6597              	.LCFI574:
 6598              		.cfi_restore 14
 6599              		.cfi_restore 5
 6600              		.cfi_restore 4
 6601              		.cfi_def_cfa_offset 16
 6602 003e 04B0     		add	sp, sp, #16
 6603              	.LCFI575:
 6604              		.cfi_def_cfa_offset 0
 6605 0040 7047     		bx	lr
 6606              		.cfi_endproc
 6607              	.LFE219:
 6609 0042 00BF     		.section	.text.B3M_StatusSystem_ReadOnly,"ax",%progbits
 6610              		.align	2
 6611              		.global	B3M_StatusSystem_ReadOnly
 6612              		.thumb
 6613              		.thumb_func
 6615              	B3M_StatusSystem_ReadOnly:
 6616              	.LFB220:
 839:Src/B3M.c     **** 
 840:Src/B3M.c     **** uint8_t B3M_StatusSystem_ReadOnly(UART_HandleTypeDef huart, uint8_t SERVO_ID)
 841:Src/B3M.c     **** {
 6617              		.loc 1 841 0
 6618              		.cfi_startproc
 6619              		@ args = 68, pretend = 16, frame = 0
 6620              		@ frame_needed = 0, uses_anonymous_args = 0
 6621              	.LVL283:
 6622 0000 84B0     		sub	sp, sp, #16
 6623              	.LCFI576:
 6624              		.cfi_def_cfa_offset 16
 6625 0002 30B5     		push	{r4, r5, lr}
 6626              	.LCFI577:
 6627              		.cfi_def_cfa_offset 28
 6628              		.cfi_offset 4, -28
 6629              		.cfi_offset 5, -24
 6630              		.cfi_offset 14, -20
ARM GAS  /tmp/cckyA7fG.s 			page 129


 6631 0004 91B0     		sub	sp, sp, #68
 6632              	.LCFI578:
 6633              		.cfi_def_cfa_offset 96
 6634 0006 14AC     		add	r4, sp, #80
 6635 0008 84E80F00 		stmia	r4, {r0, r1, r2, r3}
 842:Src/B3M.c     **** 	B3M_Read(huart, SERVO_ID, ERROR_STATUS_SYSTEM, READ_LENGTH_4B);
 6636              		.loc 1 842 0
 6637 000c 0423     		movs	r3, #4
 6638 000e 0E93     		str	r3, [sp, #56]
 6639 0010 9E23     		movs	r3, #158
 6640 0012 0D93     		str	r3, [sp, #52]
 6641 0014 9DF89030 		ldrb	r3, [sp, #144]	@ zero_extendqisi2
 6642 0018 0C93     		str	r3, [sp, #48]
 6643 001a 6C46     		mov	r4, sp
 6644 001c 18AD     		add	r5, sp, #96
 6645 001e 0FCD     		ldmia	r5!, {r0, r1, r2, r3}
 6646 0020 0FC4     		stmia	r4!, {r0, r1, r2, r3}
 6647 0022 0FCD     		ldmia	r5!, {r0, r1, r2, r3}
 6648 0024 0FC4     		stmia	r4!, {r0, r1, r2, r3}
 6649 0026 95E80F00 		ldmia	r5, {r0, r1, r2, r3}
 6650 002a 84E80F00 		stmia	r4, {r0, r1, r2, r3}
 6651 002e 14AB     		add	r3, sp, #80
 6652 0030 0FCB     		ldmia	r3, {r0, r1, r2, r3}
 6653 0032 FFF7FEFF 		bl	B3M_Read
 6654              	.LVL284:
 843:Src/B3M.c     **** 	return 0;
 844:Src/B3M.c     **** }
 6655              		.loc 1 844 0
 6656 0036 0020     		movs	r0, #0
 6657 0038 11B0     		add	sp, sp, #68
 6658              	.LCFI579:
 6659              		.cfi_def_cfa_offset 28
 6660              		@ sp needed
 6661 003a BDE83040 		pop	{r4, r5, lr}
 6662              	.LCFI580:
 6663              		.cfi_restore 14
 6664              		.cfi_restore 5
 6665              		.cfi_restore 4
 6666              		.cfi_def_cfa_offset 16
 6667 003e 04B0     		add	sp, sp, #16
 6668              	.LCFI581:
 6669              		.cfi_def_cfa_offset 0
 6670 0040 7047     		bx	lr
 6671              		.cfi_endproc
 6672              	.LFE220:
 6674 0042 00BF     		.section	.text.B3M_StatusSytemError_ReadOnly,"ax",%progbits
 6675              		.align	2
 6676              		.global	B3M_StatusSytemError_ReadOnly
 6677              		.thumb
 6678              		.thumb_func
 6680              	B3M_StatusSytemError_ReadOnly:
 6681              	.LFB221:
 845:Src/B3M.c     **** 
 846:Src/B3M.c     **** uint8_t B3M_StatusSytemError_ReadOnly(UART_HandleTypeDef huart, uint8_t SERVO_ID)
 847:Src/B3M.c     **** {
 6682              		.loc 1 847 0
 6683              		.cfi_startproc
ARM GAS  /tmp/cckyA7fG.s 			page 130


 6684              		@ args = 68, pretend = 16, frame = 0
 6685              		@ frame_needed = 0, uses_anonymous_args = 0
 6686              	.LVL285:
 6687 0000 84B0     		sub	sp, sp, #16
 6688              	.LCFI582:
 6689              		.cfi_def_cfa_offset 16
 6690 0002 30B5     		push	{r4, r5, lr}
 6691              	.LCFI583:
 6692              		.cfi_def_cfa_offset 28
 6693              		.cfi_offset 4, -28
 6694              		.cfi_offset 5, -24
 6695              		.cfi_offset 14, -20
 6696 0004 91B0     		sub	sp, sp, #68
 6697              	.LCFI584:
 6698              		.cfi_def_cfa_offset 96
 6699 0006 14AC     		add	r4, sp, #80
 6700 0008 84E80F00 		stmia	r4, {r0, r1, r2, r3}
 848:Src/B3M.c     **** 	B3M_Read(huart, SERVO_ID, ERROR_STATUS_SYSTEM_ERROR, READ_LENGTH_1B);
 6701              		.loc 1 848 0
 6702 000c 0123     		movs	r3, #1
 6703 000e 0E93     		str	r3, [sp, #56]
 6704 0010 9E23     		movs	r3, #158
 6705 0012 0D93     		str	r3, [sp, #52]
 6706 0014 9DF89030 		ldrb	r3, [sp, #144]	@ zero_extendqisi2
 6707 0018 0C93     		str	r3, [sp, #48]
 6708 001a 6C46     		mov	r4, sp
 6709 001c 18AD     		add	r5, sp, #96
 6710 001e 0FCD     		ldmia	r5!, {r0, r1, r2, r3}
 6711 0020 0FC4     		stmia	r4!, {r0, r1, r2, r3}
 6712 0022 0FCD     		ldmia	r5!, {r0, r1, r2, r3}
 6713 0024 0FC4     		stmia	r4!, {r0, r1, r2, r3}
 6714 0026 95E80F00 		ldmia	r5, {r0, r1, r2, r3}
 6715 002a 84E80F00 		stmia	r4, {r0, r1, r2, r3}
 6716 002e 14AB     		add	r3, sp, #80
 6717 0030 0FCB     		ldmia	r3, {r0, r1, r2, r3}
 6718 0032 FFF7FEFF 		bl	B3M_Read
 6719              	.LVL286:
 849:Src/B3M.c     **** 	return 0;
 850:Src/B3M.c     **** }
 6720              		.loc 1 850 0
 6721 0036 0020     		movs	r0, #0
 6722 0038 11B0     		add	sp, sp, #68
 6723              	.LCFI585:
 6724              		.cfi_def_cfa_offset 28
 6725              		@ sp needed
 6726 003a BDE83040 		pop	{r4, r5, lr}
 6727              	.LCFI586:
 6728              		.cfi_restore 14
 6729              		.cfi_restore 5
 6730              		.cfi_restore 4
 6731              		.cfi_def_cfa_offset 16
 6732 003e 04B0     		add	sp, sp, #16
 6733              	.LCFI587:
 6734              		.cfi_def_cfa_offset 0
 6735 0040 7047     		bx	lr
 6736              		.cfi_endproc
 6737              	.LFE221:
ARM GAS  /tmp/cckyA7fG.s 			page 131


 6739 0042 00BF     		.section	.text.B3M_StatusMotor_ReadOnly,"ax",%progbits
 6740              		.align	2
 6741              		.global	B3M_StatusMotor_ReadOnly
 6742              		.thumb
 6743              		.thumb_func
 6745              	B3M_StatusMotor_ReadOnly:
 6746              	.LFB222:
 851:Src/B3M.c     **** 
 852:Src/B3M.c     **** uint8_t B3M_StatusMotor_ReadOnly(UART_HandleTypeDef huart, uint8_t SERVO_ID)
 853:Src/B3M.c     **** {
 6747              		.loc 1 853 0
 6748              		.cfi_startproc
 6749              		@ args = 68, pretend = 16, frame = 0
 6750              		@ frame_needed = 0, uses_anonymous_args = 0
 6751              	.LVL287:
 6752 0000 84B0     		sub	sp, sp, #16
 6753              	.LCFI588:
 6754              		.cfi_def_cfa_offset 16
 6755 0002 30B5     		push	{r4, r5, lr}
 6756              	.LCFI589:
 6757              		.cfi_def_cfa_offset 28
 6758              		.cfi_offset 4, -28
 6759              		.cfi_offset 5, -24
 6760              		.cfi_offset 14, -20
 6761 0004 91B0     		sub	sp, sp, #68
 6762              	.LCFI590:
 6763              		.cfi_def_cfa_offset 96
 6764 0006 14AC     		add	r4, sp, #80
 6765 0008 84E80F00 		stmia	r4, {r0, r1, r2, r3}
 854:Src/B3M.c     **** 	B3M_Read(huart, SERVO_ID, ERROR_STATUS_MOTOR, READ_LENGTH_1B);
 6766              		.loc 1 854 0
 6767 000c 0123     		movs	r3, #1
 6768 000e 0E93     		str	r3, [sp, #56]
 6769 0010 9F23     		movs	r3, #159
 6770 0012 0D93     		str	r3, [sp, #52]
 6771 0014 9DF89030 		ldrb	r3, [sp, #144]	@ zero_extendqisi2
 6772 0018 0C93     		str	r3, [sp, #48]
 6773 001a 6C46     		mov	r4, sp
 6774 001c 18AD     		add	r5, sp, #96
 6775 001e 0FCD     		ldmia	r5!, {r0, r1, r2, r3}
 6776 0020 0FC4     		stmia	r4!, {r0, r1, r2, r3}
 6777 0022 0FCD     		ldmia	r5!, {r0, r1, r2, r3}
 6778 0024 0FC4     		stmia	r4!, {r0, r1, r2, r3}
 6779 0026 95E80F00 		ldmia	r5, {r0, r1, r2, r3}
 6780 002a 84E80F00 		stmia	r4, {r0, r1, r2, r3}
 6781 002e 14AB     		add	r3, sp, #80
 6782 0030 0FCB     		ldmia	r3, {r0, r1, r2, r3}
 6783 0032 FFF7FEFF 		bl	B3M_Read
 6784              	.LVL288:
 855:Src/B3M.c     **** 	return 0;
 856:Src/B3M.c     **** }
 6785              		.loc 1 856 0
 6786 0036 0020     		movs	r0, #0
 6787 0038 11B0     		add	sp, sp, #68
 6788              	.LCFI591:
 6789              		.cfi_def_cfa_offset 28
 6790              		@ sp needed
ARM GAS  /tmp/cckyA7fG.s 			page 132


 6791 003a BDE83040 		pop	{r4, r5, lr}
 6792              	.LCFI592:
 6793              		.cfi_restore 14
 6794              		.cfi_restore 5
 6795              		.cfi_restore 4
 6796              		.cfi_def_cfa_offset 16
 6797 003e 04B0     		add	sp, sp, #16
 6798              	.LCFI593:
 6799              		.cfi_def_cfa_offset 0
 6800 0040 7047     		bx	lr
 6801              		.cfi_endproc
 6802              	.LFE222:
 6804 0042 00BF     		.section	.text.B3M_StatusUart_ReadOnly,"ax",%progbits
 6805              		.align	2
 6806              		.global	B3M_StatusUart_ReadOnly
 6807              		.thumb
 6808              		.thumb_func
 6810              	B3M_StatusUart_ReadOnly:
 6811              	.LFB223:
 857:Src/B3M.c     **** 
 858:Src/B3M.c     **** uint8_t B3M_StatusUart_ReadOnly(UART_HandleTypeDef huart, uint8_t SERVO_ID)
 859:Src/B3M.c     **** {
 6812              		.loc 1 859 0
 6813              		.cfi_startproc
 6814              		@ args = 68, pretend = 16, frame = 0
 6815              		@ frame_needed = 0, uses_anonymous_args = 0
 6816              	.LVL289:
 6817 0000 84B0     		sub	sp, sp, #16
 6818              	.LCFI594:
 6819              		.cfi_def_cfa_offset 16
 6820 0002 30B5     		push	{r4, r5, lr}
 6821              	.LCFI595:
 6822              		.cfi_def_cfa_offset 28
 6823              		.cfi_offset 4, -28
 6824              		.cfi_offset 5, -24
 6825              		.cfi_offset 14, -20
 6826 0004 91B0     		sub	sp, sp, #68
 6827              	.LCFI596:
 6828              		.cfi_def_cfa_offset 96
 6829 0006 14AC     		add	r4, sp, #80
 6830 0008 84E80F00 		stmia	r4, {r0, r1, r2, r3}
 860:Src/B3M.c     **** 	B3M_Read(huart, SERVO_ID, ERROR_STATUS_UART, READ_LENGTH_1B);
 6831              		.loc 1 860 0
 6832 000c 0123     		movs	r3, #1
 6833 000e 0E93     		str	r3, [sp, #56]
 6834 0010 A023     		movs	r3, #160
 6835 0012 0D93     		str	r3, [sp, #52]
 6836 0014 9DF89030 		ldrb	r3, [sp, #144]	@ zero_extendqisi2
 6837 0018 0C93     		str	r3, [sp, #48]
 6838 001a 6C46     		mov	r4, sp
 6839 001c 18AD     		add	r5, sp, #96
 6840 001e 0FCD     		ldmia	r5!, {r0, r1, r2, r3}
 6841 0020 0FC4     		stmia	r4!, {r0, r1, r2, r3}
 6842 0022 0FCD     		ldmia	r5!, {r0, r1, r2, r3}
 6843 0024 0FC4     		stmia	r4!, {r0, r1, r2, r3}
 6844 0026 95E80F00 		ldmia	r5, {r0, r1, r2, r3}
 6845 002a 84E80F00 		stmia	r4, {r0, r1, r2, r3}
ARM GAS  /tmp/cckyA7fG.s 			page 133


 6846 002e 14AB     		add	r3, sp, #80
 6847 0030 0FCB     		ldmia	r3, {r0, r1, r2, r3}
 6848 0032 FFF7FEFF 		bl	B3M_Read
 6849              	.LVL290:
 861:Src/B3M.c     **** 	return 0;
 862:Src/B3M.c     **** }
 6850              		.loc 1 862 0
 6851 0036 0020     		movs	r0, #0
 6852 0038 11B0     		add	sp, sp, #68
 6853              	.LCFI597:
 6854              		.cfi_def_cfa_offset 28
 6855              		@ sp needed
 6856 003a BDE83040 		pop	{r4, r5, lr}
 6857              	.LCFI598:
 6858              		.cfi_restore 14
 6859              		.cfi_restore 5
 6860              		.cfi_restore 4
 6861              		.cfi_def_cfa_offset 16
 6862 003e 04B0     		add	sp, sp, #16
 6863              	.LCFI599:
 6864              		.cfi_def_cfa_offset 0
 6865 0040 7047     		bx	lr
 6866              		.cfi_endproc
 6867              	.LFE223:
 6869 0042 00BF     		.section	.text.B3M_StatusCommand_ReadOnly,"ax",%progbits
 6870              		.align	2
 6871              		.global	B3M_StatusCommand_ReadOnly
 6872              		.thumb
 6873              		.thumb_func
 6875              	B3M_StatusCommand_ReadOnly:
 6876              	.LFB224:
 863:Src/B3M.c     **** 
 864:Src/B3M.c     **** uint8_t B3M_StatusCommand_ReadOnly(UART_HandleTypeDef huart, uint8_t SERVO_ID)
 865:Src/B3M.c     **** {
 6877              		.loc 1 865 0
 6878              		.cfi_startproc
 6879              		@ args = 68, pretend = 16, frame = 0
 6880              		@ frame_needed = 0, uses_anonymous_args = 0
 6881              	.LVL291:
 6882 0000 84B0     		sub	sp, sp, #16
 6883              	.LCFI600:
 6884              		.cfi_def_cfa_offset 16
 6885 0002 30B5     		push	{r4, r5, lr}
 6886              	.LCFI601:
 6887              		.cfi_def_cfa_offset 28
 6888              		.cfi_offset 4, -28
 6889              		.cfi_offset 5, -24
 6890              		.cfi_offset 14, -20
 6891 0004 91B0     		sub	sp, sp, #68
 6892              	.LCFI602:
 6893              		.cfi_def_cfa_offset 96
 6894 0006 14AC     		add	r4, sp, #80
 6895 0008 84E80F00 		stmia	r4, {r0, r1, r2, r3}
 866:Src/B3M.c     **** 	B3M_Read(huart, SERVO_ID, ERROR_STATUS_COMMAND, READ_LENGTH_1B);
 6896              		.loc 1 866 0
 6897 000c 0123     		movs	r3, #1
 6898 000e 0E93     		str	r3, [sp, #56]
ARM GAS  /tmp/cckyA7fG.s 			page 134


 6899 0010 A123     		movs	r3, #161
 6900 0012 0D93     		str	r3, [sp, #52]
 6901 0014 9DF89030 		ldrb	r3, [sp, #144]	@ zero_extendqisi2
 6902 0018 0C93     		str	r3, [sp, #48]
 6903 001a 6C46     		mov	r4, sp
 6904 001c 18AD     		add	r5, sp, #96
 6905 001e 0FCD     		ldmia	r5!, {r0, r1, r2, r3}
 6906 0020 0FC4     		stmia	r4!, {r0, r1, r2, r3}
 6907 0022 0FCD     		ldmia	r5!, {r0, r1, r2, r3}
 6908 0024 0FC4     		stmia	r4!, {r0, r1, r2, r3}
 6909 0026 95E80F00 		ldmia	r5, {r0, r1, r2, r3}
 6910 002a 84E80F00 		stmia	r4, {r0, r1, r2, r3}
 6911 002e 14AB     		add	r3, sp, #80
 6912 0030 0FCB     		ldmia	r3, {r0, r1, r2, r3}
 6913 0032 FFF7FEFF 		bl	B3M_Read
 6914              	.LVL292:
 867:Src/B3M.c     **** 	return 0;
 868:Src/B3M.c     **** }
 6915              		.loc 1 868 0
 6916 0036 0020     		movs	r0, #0
 6917 0038 11B0     		add	sp, sp, #68
 6918              	.LCFI603:
 6919              		.cfi_def_cfa_offset 28
 6920              		@ sp needed
 6921 003a BDE83040 		pop	{r4, r5, lr}
 6922              	.LCFI604:
 6923              		.cfi_restore 14
 6924              		.cfi_restore 5
 6925              		.cfi_restore 4
 6926              		.cfi_def_cfa_offset 16
 6927 003e 04B0     		add	sp, sp, #16
 6928              	.LCFI605:
 6929              		.cfi_def_cfa_offset 0
 6930 0040 7047     		bx	lr
 6931              		.cfi_endproc
 6932              	.LFE224:
 6934 0042 00BF     		.section	.text.B3M_ModelNumber_ReadOnly,"ax",%progbits
 6935              		.align	2
 6936              		.global	B3M_ModelNumber_ReadOnly
 6937              		.thumb
 6938              		.thumb_func
 6940              	B3M_ModelNumber_ReadOnly:
 6941              	.LFB225:
 869:Src/B3M.c     **** 
 870:Src/B3M.c     **** /** System Default Value, Version Information Area Address'
 871:Src/B3M.c     **** */
 872:Src/B3M.c     **** 
 873:Src/B3M.c     **** uint8_t B3M_ModelNumber_ReadOnly(UART_HandleTypeDef huart, uint8_t SERVO_ID)
 874:Src/B3M.c     **** {
 6942              		.loc 1 874 0
 6943              		.cfi_startproc
 6944              		@ args = 68, pretend = 16, frame = 0
 6945              		@ frame_needed = 0, uses_anonymous_args = 0
 6946              	.LVL293:
 6947 0000 84B0     		sub	sp, sp, #16
 6948              	.LCFI606:
 6949              		.cfi_def_cfa_offset 16
ARM GAS  /tmp/cckyA7fG.s 			page 135


 6950 0002 30B5     		push	{r4, r5, lr}
 6951              	.LCFI607:
 6952              		.cfi_def_cfa_offset 28
 6953              		.cfi_offset 4, -28
 6954              		.cfi_offset 5, -24
 6955              		.cfi_offset 14, -20
 6956 0004 91B0     		sub	sp, sp, #68
 6957              	.LCFI608:
 6958              		.cfi_def_cfa_offset 96
 6959 0006 14AC     		add	r4, sp, #80
 6960 0008 84E80F00 		stmia	r4, {r0, r1, r2, r3}
 875:Src/B3M.c     **** 	B3M_Read(huart, SERVO_ID, CONFIG_MODEL_NUMBER, READ_LENGTH_4B);
 6961              		.loc 1 875 0
 6962 000c 0423     		movs	r3, #4
 6963 000e 0E93     		str	r3, [sp, #56]
 6964 0010 A223     		movs	r3, #162
 6965 0012 0D93     		str	r3, [sp, #52]
 6966 0014 9DF89030 		ldrb	r3, [sp, #144]	@ zero_extendqisi2
 6967 0018 0C93     		str	r3, [sp, #48]
 6968 001a 6C46     		mov	r4, sp
 6969 001c 18AD     		add	r5, sp, #96
 6970 001e 0FCD     		ldmia	r5!, {r0, r1, r2, r3}
 6971 0020 0FC4     		stmia	r4!, {r0, r1, r2, r3}
 6972 0022 0FCD     		ldmia	r5!, {r0, r1, r2, r3}
 6973 0024 0FC4     		stmia	r4!, {r0, r1, r2, r3}
 6974 0026 95E80F00 		ldmia	r5, {r0, r1, r2, r3}
 6975 002a 84E80F00 		stmia	r4, {r0, r1, r2, r3}
 6976 002e 14AB     		add	r3, sp, #80
 6977 0030 0FCB     		ldmia	r3, {r0, r1, r2, r3}
 6978 0032 FFF7FEFF 		bl	B3M_Read
 6979              	.LVL294:
 876:Src/B3M.c     **** 	return 0;
 877:Src/B3M.c     **** }
 6980              		.loc 1 877 0
 6981 0036 0020     		movs	r0, #0
 6982 0038 11B0     		add	sp, sp, #68
 6983              	.LCFI609:
 6984              		.cfi_def_cfa_offset 28
 6985              		@ sp needed
 6986 003a BDE83040 		pop	{r4, r5, lr}
 6987              	.LCFI610:
 6988              		.cfi_restore 14
 6989              		.cfi_restore 5
 6990              		.cfi_restore 4
 6991              		.cfi_def_cfa_offset 16
 6992 003e 04B0     		add	sp, sp, #16
 6993              	.LCFI611:
 6994              		.cfi_def_cfa_offset 0
 6995 0040 7047     		bx	lr
 6996              		.cfi_endproc
 6997              	.LFE225:
 6999 0042 00BF     		.section	.text.B3M_ModelNumberVoltageClass_ReadOnly,"ax",%progbits
 7000              		.align	2
 7001              		.global	B3M_ModelNumberVoltageClass_ReadOnly
 7002              		.thumb
 7003              		.thumb_func
 7005              	B3M_ModelNumberVoltageClass_ReadOnly:
ARM GAS  /tmp/cckyA7fG.s 			page 136


 7006              	.LFB226:
 878:Src/B3M.c     **** uint8_t B3M_ModelNumberVoltageClass_ReadOnly(UART_HandleTypeDef huart, uint8_t SERVO_ID)
 879:Src/B3M.c     **** {
 7007              		.loc 1 879 0
 7008              		.cfi_startproc
 7009              		@ args = 68, pretend = 16, frame = 0
 7010              		@ frame_needed = 0, uses_anonymous_args = 0
 7011              	.LVL295:
 7012 0000 84B0     		sub	sp, sp, #16
 7013              	.LCFI612:
 7014              		.cfi_def_cfa_offset 16
 7015 0002 30B5     		push	{r4, r5, lr}
 7016              	.LCFI613:
 7017              		.cfi_def_cfa_offset 28
 7018              		.cfi_offset 4, -28
 7019              		.cfi_offset 5, -24
 7020              		.cfi_offset 14, -20
 7021 0004 91B0     		sub	sp, sp, #68
 7022              	.LCFI614:
 7023              		.cfi_def_cfa_offset 96
 7024 0006 14AC     		add	r4, sp, #80
 7025 0008 84E80F00 		stmia	r4, {r0, r1, r2, r3}
 880:Src/B3M.c     **** 	B3M_Read(huart, SERVO_ID, CONFIG_MODEL_NUMBER_VOLTAGE_CLASS, READ_LENGTH_1B);
 7026              		.loc 1 880 0
 7027 000c 0123     		movs	r3, #1
 7028 000e 0E93     		str	r3, [sp, #56]
 7029 0010 A223     		movs	r3, #162
 7030 0012 0D93     		str	r3, [sp, #52]
 7031 0014 9DF89030 		ldrb	r3, [sp, #144]	@ zero_extendqisi2
 7032 0018 0C93     		str	r3, [sp, #48]
 7033 001a 6C46     		mov	r4, sp
 7034 001c 18AD     		add	r5, sp, #96
 7035 001e 0FCD     		ldmia	r5!, {r0, r1, r2, r3}
 7036 0020 0FC4     		stmia	r4!, {r0, r1, r2, r3}
 7037 0022 0FCD     		ldmia	r5!, {r0, r1, r2, r3}
 7038 0024 0FC4     		stmia	r4!, {r0, r1, r2, r3}
 7039 0026 95E80F00 		ldmia	r5, {r0, r1, r2, r3}
 7040 002a 84E80F00 		stmia	r4, {r0, r1, r2, r3}
 7041 002e 14AB     		add	r3, sp, #80
 7042 0030 0FCB     		ldmia	r3, {r0, r1, r2, r3}
 7043 0032 FFF7FEFF 		bl	B3M_Read
 7044              	.LVL296:
 881:Src/B3M.c     **** 	return 0;
 882:Src/B3M.c     **** }
 7045              		.loc 1 882 0
 7046 0036 0020     		movs	r0, #0
 7047 0038 11B0     		add	sp, sp, #68
 7048              	.LCFI615:
 7049              		.cfi_def_cfa_offset 28
 7050              		@ sp needed
 7051 003a BDE83040 		pop	{r4, r5, lr}
 7052              	.LCFI616:
 7053              		.cfi_restore 14
 7054              		.cfi_restore 5
 7055              		.cfi_restore 4
 7056              		.cfi_def_cfa_offset 16
 7057 003e 04B0     		add	sp, sp, #16
ARM GAS  /tmp/cckyA7fG.s 			page 137


 7058              	.LCFI617:
 7059              		.cfi_def_cfa_offset 0
 7060 0040 7047     		bx	lr
 7061              		.cfi_endproc
 7062              	.LFE226:
 7064 0042 00BF     		.section	.text.B3M_ModelNumberVersion_ReadOnly,"ax",%progbits
 7065              		.align	2
 7066              		.global	B3M_ModelNumberVersion_ReadOnly
 7067              		.thumb
 7068              		.thumb_func
 7070              	B3M_ModelNumberVersion_ReadOnly:
 7071              	.LFB227:
 883:Src/B3M.c     **** uint8_t B3M_ModelNumberVersion_ReadOnly(UART_HandleTypeDef huart, uint8_t SERVO_ID)
 884:Src/B3M.c     **** {
 7072              		.loc 1 884 0
 7073              		.cfi_startproc
 7074              		@ args = 68, pretend = 16, frame = 0
 7075              		@ frame_needed = 0, uses_anonymous_args = 0
 7076              	.LVL297:
 7077 0000 84B0     		sub	sp, sp, #16
 7078              	.LCFI618:
 7079              		.cfi_def_cfa_offset 16
 7080 0002 30B5     		push	{r4, r5, lr}
 7081              	.LCFI619:
 7082              		.cfi_def_cfa_offset 28
 7083              		.cfi_offset 4, -28
 7084              		.cfi_offset 5, -24
 7085              		.cfi_offset 14, -20
 7086 0004 91B0     		sub	sp, sp, #68
 7087              	.LCFI620:
 7088              		.cfi_def_cfa_offset 96
 7089 0006 14AC     		add	r4, sp, #80
 7090 0008 84E80F00 		stmia	r4, {r0, r1, r2, r3}
 885:Src/B3M.c     **** 	B3M_Read(huart, SERVO_ID, CONFIG_MODEL_NUMBER_VERSION, READ_LENGTH_1B);
 7091              		.loc 1 885 0
 7092 000c 0123     		movs	r3, #1
 7093 000e 0E93     		str	r3, [sp, #56]
 7094 0010 A323     		movs	r3, #163
 7095 0012 0D93     		str	r3, [sp, #52]
 7096 0014 9DF89030 		ldrb	r3, [sp, #144]	@ zero_extendqisi2
 7097 0018 0C93     		str	r3, [sp, #48]
 7098 001a 6C46     		mov	r4, sp
 7099 001c 18AD     		add	r5, sp, #96
 7100 001e 0FCD     		ldmia	r5!, {r0, r1, r2, r3}
 7101 0020 0FC4     		stmia	r4!, {r0, r1, r2, r3}
 7102 0022 0FCD     		ldmia	r5!, {r0, r1, r2, r3}
 7103 0024 0FC4     		stmia	r4!, {r0, r1, r2, r3}
 7104 0026 95E80F00 		ldmia	r5, {r0, r1, r2, r3}
 7105 002a 84E80F00 		stmia	r4, {r0, r1, r2, r3}
 7106 002e 14AB     		add	r3, sp, #80
 7107 0030 0FCB     		ldmia	r3, {r0, r1, r2, r3}
 7108 0032 FFF7FEFF 		bl	B3M_Read
 7109              	.LVL298:
 886:Src/B3M.c     **** 	return 0;
 887:Src/B3M.c     **** }
 7110              		.loc 1 887 0
 7111 0036 0020     		movs	r0, #0
ARM GAS  /tmp/cckyA7fG.s 			page 138


 7112 0038 11B0     		add	sp, sp, #68
 7113              	.LCFI621:
 7114              		.cfi_def_cfa_offset 28
 7115              		@ sp needed
 7116 003a BDE83040 		pop	{r4, r5, lr}
 7117              	.LCFI622:
 7118              		.cfi_restore 14
 7119              		.cfi_restore 5
 7120              		.cfi_restore 4
 7121              		.cfi_def_cfa_offset 16
 7122 003e 04B0     		add	sp, sp, #16
 7123              	.LCFI623:
 7124              		.cfi_def_cfa_offset 0
 7125 0040 7047     		bx	lr
 7126              		.cfi_endproc
 7127              	.LFE227:
 7129 0042 00BF     		.section	.text.B3M_ModelNumberTorque_ReadOnly,"ax",%progbits
 7130              		.align	2
 7131              		.global	B3M_ModelNumberTorque_ReadOnly
 7132              		.thumb
 7133              		.thumb_func
 7135              	B3M_ModelNumberTorque_ReadOnly:
 7136              	.LFB228:
 888:Src/B3M.c     **** uint8_t B3M_ModelNumberTorque_ReadOnly(UART_HandleTypeDef huart, uint8_t SERVO_ID)
 889:Src/B3M.c     **** {
 7137              		.loc 1 889 0
 7138              		.cfi_startproc
 7139              		@ args = 68, pretend = 16, frame = 0
 7140              		@ frame_needed = 0, uses_anonymous_args = 0
 7141              	.LVL299:
 7142 0000 84B0     		sub	sp, sp, #16
 7143              	.LCFI624:
 7144              		.cfi_def_cfa_offset 16
 7145 0002 30B5     		push	{r4, r5, lr}
 7146              	.LCFI625:
 7147              		.cfi_def_cfa_offset 28
 7148              		.cfi_offset 4, -28
 7149              		.cfi_offset 5, -24
 7150              		.cfi_offset 14, -20
 7151 0004 91B0     		sub	sp, sp, #68
 7152              	.LCFI626:
 7153              		.cfi_def_cfa_offset 96
 7154 0006 14AC     		add	r4, sp, #80
 7155 0008 84E80F00 		stmia	r4, {r0, r1, r2, r3}
 890:Src/B3M.c     **** 	B3M_Read(huart, SERVO_ID, CONFIG_MODEL_NUMBER_TORQUE, READ_LENGTH_1B);
 7156              		.loc 1 890 0
 7157 000c 0123     		movs	r3, #1
 7158 000e 0E93     		str	r3, [sp, #56]
 7159 0010 A423     		movs	r3, #164
 7160 0012 0D93     		str	r3, [sp, #52]
 7161 0014 9DF89030 		ldrb	r3, [sp, #144]	@ zero_extendqisi2
 7162 0018 0C93     		str	r3, [sp, #48]
 7163 001a 6C46     		mov	r4, sp
 7164 001c 18AD     		add	r5, sp, #96
 7165 001e 0FCD     		ldmia	r5!, {r0, r1, r2, r3}
 7166 0020 0FC4     		stmia	r4!, {r0, r1, r2, r3}
 7167 0022 0FCD     		ldmia	r5!, {r0, r1, r2, r3}
ARM GAS  /tmp/cckyA7fG.s 			page 139


 7168 0024 0FC4     		stmia	r4!, {r0, r1, r2, r3}
 7169 0026 95E80F00 		ldmia	r5, {r0, r1, r2, r3}
 7170 002a 84E80F00 		stmia	r4, {r0, r1, r2, r3}
 7171 002e 14AB     		add	r3, sp, #80
 7172 0030 0FCB     		ldmia	r3, {r0, r1, r2, r3}
 7173 0032 FFF7FEFF 		bl	B3M_Read
 7174              	.LVL300:
 891:Src/B3M.c     **** 	return 0;
 892:Src/B3M.c     **** }
 7175              		.loc 1 892 0
 7176 0036 0020     		movs	r0, #0
 7177 0038 11B0     		add	sp, sp, #68
 7178              	.LCFI627:
 7179              		.cfi_def_cfa_offset 28
 7180              		@ sp needed
 7181 003a BDE83040 		pop	{r4, r5, lr}
 7182              	.LCFI628:
 7183              		.cfi_restore 14
 7184              		.cfi_restore 5
 7185              		.cfi_restore 4
 7186              		.cfi_def_cfa_offset 16
 7187 003e 04B0     		add	sp, sp, #16
 7188              	.LCFI629:
 7189              		.cfi_def_cfa_offset 0
 7190 0040 7047     		bx	lr
 7191              		.cfi_endproc
 7192              	.LFE228:
 7194 0042 00BF     		.section	.text.B3M_ModelNumberCase_ReadOnly,"ax",%progbits
 7195              		.align	2
 7196              		.global	B3M_ModelNumberCase_ReadOnly
 7197              		.thumb
 7198              		.thumb_func
 7200              	B3M_ModelNumberCase_ReadOnly:
 7201              	.LFB229:
 893:Src/B3M.c     **** uint8_t B3M_ModelNumberCase_ReadOnly(UART_HandleTypeDef huart, uint8_t SERVO_ID)
 894:Src/B3M.c     **** {
 7202              		.loc 1 894 0
 7203              		.cfi_startproc
 7204              		@ args = 68, pretend = 16, frame = 0
 7205              		@ frame_needed = 0, uses_anonymous_args = 0
 7206              	.LVL301:
 7207 0000 84B0     		sub	sp, sp, #16
 7208              	.LCFI630:
 7209              		.cfi_def_cfa_offset 16
 7210 0002 30B5     		push	{r4, r5, lr}
 7211              	.LCFI631:
 7212              		.cfi_def_cfa_offset 28
 7213              		.cfi_offset 4, -28
 7214              		.cfi_offset 5, -24
 7215              		.cfi_offset 14, -20
 7216 0004 91B0     		sub	sp, sp, #68
 7217              	.LCFI632:
 7218              		.cfi_def_cfa_offset 96
 7219 0006 14AC     		add	r4, sp, #80
 7220 0008 84E80F00 		stmia	r4, {r0, r1, r2, r3}
 895:Src/B3M.c     **** 	B3M_Read(huart, SERVO_ID, CONFIG_MODEL_NUMBER_CASE, READ_LENGTH_1B);
 7221              		.loc 1 895 0
ARM GAS  /tmp/cckyA7fG.s 			page 140


 7222 000c 0123     		movs	r3, #1
 7223 000e 0E93     		str	r3, [sp, #56]
 7224 0010 A523     		movs	r3, #165
 7225 0012 0D93     		str	r3, [sp, #52]
 7226 0014 9DF89030 		ldrb	r3, [sp, #144]	@ zero_extendqisi2
 7227 0018 0C93     		str	r3, [sp, #48]
 7228 001a 6C46     		mov	r4, sp
 7229 001c 18AD     		add	r5, sp, #96
 7230 001e 0FCD     		ldmia	r5!, {r0, r1, r2, r3}
 7231 0020 0FC4     		stmia	r4!, {r0, r1, r2, r3}
 7232 0022 0FCD     		ldmia	r5!, {r0, r1, r2, r3}
 7233 0024 0FC4     		stmia	r4!, {r0, r1, r2, r3}
 7234 0026 95E80F00 		ldmia	r5, {r0, r1, r2, r3}
 7235 002a 84E80F00 		stmia	r4, {r0, r1, r2, r3}
 7236 002e 14AB     		add	r3, sp, #80
 7237 0030 0FCB     		ldmia	r3, {r0, r1, r2, r3}
 7238 0032 FFF7FEFF 		bl	B3M_Read
 7239              	.LVL302:
 896:Src/B3M.c     **** 	return 0;
 897:Src/B3M.c     **** }
 7240              		.loc 1 897 0
 7241 0036 0020     		movs	r0, #0
 7242 0038 11B0     		add	sp, sp, #68
 7243              	.LCFI633:
 7244              		.cfi_def_cfa_offset 28
 7245              		@ sp needed
 7246 003a BDE83040 		pop	{r4, r5, lr}
 7247              	.LCFI634:
 7248              		.cfi_restore 14
 7249              		.cfi_restore 5
 7250              		.cfi_restore 4
 7251              		.cfi_def_cfa_offset 16
 7252 003e 04B0     		add	sp, sp, #16
 7253              	.LCFI635:
 7254              		.cfi_def_cfa_offset 0
 7255 0040 7047     		bx	lr
 7256              		.cfi_endproc
 7257              	.LFE229:
 7259 0042 00BF     		.section	.text.B3M_ModelType_ReadOnly,"ax",%progbits
 7260              		.align	2
 7261              		.global	B3M_ModelType_ReadOnly
 7262              		.thumb
 7263              		.thumb_func
 7265              	B3M_ModelType_ReadOnly:
 7266              	.LFB230:
 898:Src/B3M.c     **** uint8_t B3M_ModelType_ReadOnly(UART_HandleTypeDef huart, uint8_t SERVO_ID)
 899:Src/B3M.c     **** {
 7267              		.loc 1 899 0
 7268              		.cfi_startproc
 7269              		@ args = 68, pretend = 16, frame = 0
 7270              		@ frame_needed = 0, uses_anonymous_args = 0
 7271              	.LVL303:
 7272 0000 84B0     		sub	sp, sp, #16
 7273              	.LCFI636:
 7274              		.cfi_def_cfa_offset 16
 7275 0002 30B5     		push	{r4, r5, lr}
 7276              	.LCFI637:
ARM GAS  /tmp/cckyA7fG.s 			page 141


 7277              		.cfi_def_cfa_offset 28
 7278              		.cfi_offset 4, -28
 7279              		.cfi_offset 5, -24
 7280              		.cfi_offset 14, -20
 7281 0004 91B0     		sub	sp, sp, #68
 7282              	.LCFI638:
 7283              		.cfi_def_cfa_offset 96
 7284 0006 14AC     		add	r4, sp, #80
 7285 0008 84E80F00 		stmia	r4, {r0, r1, r2, r3}
 900:Src/B3M.c     **** 	B3M_Read(huart, SERVO_ID, CONFIG_MODEL_TYPE, READ_LENGTH_4B);
 7286              		.loc 1 900 0
 7287 000c 0423     		movs	r3, #4
 7288 000e 0E93     		str	r3, [sp, #56]
 7289 0010 A623     		movs	r3, #166
 7290 0012 0D93     		str	r3, [sp, #52]
 7291 0014 9DF89030 		ldrb	r3, [sp, #144]	@ zero_extendqisi2
 7292 0018 0C93     		str	r3, [sp, #48]
 7293 001a 6C46     		mov	r4, sp
 7294 001c 18AD     		add	r5, sp, #96
 7295 001e 0FCD     		ldmia	r5!, {r0, r1, r2, r3}
 7296 0020 0FC4     		stmia	r4!, {r0, r1, r2, r3}
 7297 0022 0FCD     		ldmia	r5!, {r0, r1, r2, r3}
 7298 0024 0FC4     		stmia	r4!, {r0, r1, r2, r3}
 7299 0026 95E80F00 		ldmia	r5, {r0, r1, r2, r3}
 7300 002a 84E80F00 		stmia	r4, {r0, r1, r2, r3}
 7301 002e 14AB     		add	r3, sp, #80
 7302 0030 0FCB     		ldmia	r3, {r0, r1, r2, r3}
 7303 0032 FFF7FEFF 		bl	B3M_Read
 7304              	.LVL304:
 901:Src/B3M.c     **** 	return 0;
 902:Src/B3M.c     **** }
 7305              		.loc 1 902 0
 7306 0036 0020     		movs	r0, #0
 7307 0038 11B0     		add	sp, sp, #68
 7308              	.LCFI639:
 7309              		.cfi_def_cfa_offset 28
 7310              		@ sp needed
 7311 003a BDE83040 		pop	{r4, r5, lr}
 7312              	.LCFI640:
 7313              		.cfi_restore 14
 7314              		.cfi_restore 5
 7315              		.cfi_restore 4
 7316              		.cfi_def_cfa_offset 16
 7317 003e 04B0     		add	sp, sp, #16
 7318              	.LCFI641:
 7319              		.cfi_def_cfa_offset 0
 7320 0040 7047     		bx	lr
 7321              		.cfi_endproc
 7322              	.LFE230:
 7324 0042 00BF     		.section	.text.B3M_ModelTypeMotor_ReadOnly,"ax",%progbits
 7325              		.align	2
 7326              		.global	B3M_ModelTypeMotor_ReadOnly
 7327              		.thumb
 7328              		.thumb_func
 7330              	B3M_ModelTypeMotor_ReadOnly:
 7331              	.LFB231:
 903:Src/B3M.c     **** 
ARM GAS  /tmp/cckyA7fG.s 			page 142


 904:Src/B3M.c     **** uint8_t B3M_ModelTypeMotor_ReadOnly(UART_HandleTypeDef huart, uint8_t SERVO_ID)
 905:Src/B3M.c     **** {
 7332              		.loc 1 905 0
 7333              		.cfi_startproc
 7334              		@ args = 68, pretend = 16, frame = 0
 7335              		@ frame_needed = 0, uses_anonymous_args = 0
 7336              	.LVL305:
 7337 0000 84B0     		sub	sp, sp, #16
 7338              	.LCFI642:
 7339              		.cfi_def_cfa_offset 16
 7340 0002 30B5     		push	{r4, r5, lr}
 7341              	.LCFI643:
 7342              		.cfi_def_cfa_offset 28
 7343              		.cfi_offset 4, -28
 7344              		.cfi_offset 5, -24
 7345              		.cfi_offset 14, -20
 7346 0004 91B0     		sub	sp, sp, #68
 7347              	.LCFI644:
 7348              		.cfi_def_cfa_offset 96
 7349 0006 14AC     		add	r4, sp, #80
 7350 0008 84E80F00 		stmia	r4, {r0, r1, r2, r3}
 906:Src/B3M.c     **** 	B3M_Read(huart, SERVO_ID, CONFIG_MODEL_TYPE_MOTOR, READ_LENGTH_1B);
 7351              		.loc 1 906 0
 7352 000c 0123     		movs	r3, #1
 7353 000e 0E93     		str	r3, [sp, #56]
 7354 0010 A823     		movs	r3, #168
 7355 0012 0D93     		str	r3, [sp, #52]
 7356 0014 9DF89030 		ldrb	r3, [sp, #144]	@ zero_extendqisi2
 7357 0018 0C93     		str	r3, [sp, #48]
 7358 001a 6C46     		mov	r4, sp
 7359 001c 18AD     		add	r5, sp, #96
 7360 001e 0FCD     		ldmia	r5!, {r0, r1, r2, r3}
 7361 0020 0FC4     		stmia	r4!, {r0, r1, r2, r3}
 7362 0022 0FCD     		ldmia	r5!, {r0, r1, r2, r3}
 7363 0024 0FC4     		stmia	r4!, {r0, r1, r2, r3}
 7364 0026 95E80F00 		ldmia	r5, {r0, r1, r2, r3}
 7365 002a 84E80F00 		stmia	r4, {r0, r1, r2, r3}
 7366 002e 14AB     		add	r3, sp, #80
 7367 0030 0FCB     		ldmia	r3, {r0, r1, r2, r3}
 7368 0032 FFF7FEFF 		bl	B3M_Read
 7369              	.LVL306:
 907:Src/B3M.c     **** 	return 0;
 908:Src/B3M.c     **** }
 7370              		.loc 1 908 0
 7371 0036 0020     		movs	r0, #0
 7372 0038 11B0     		add	sp, sp, #68
 7373              	.LCFI645:
 7374              		.cfi_def_cfa_offset 28
 7375              		@ sp needed
 7376 003a BDE83040 		pop	{r4, r5, lr}
 7377              	.LCFI646:
 7378              		.cfi_restore 14
 7379              		.cfi_restore 5
 7380              		.cfi_restore 4
 7381              		.cfi_def_cfa_offset 16
 7382 003e 04B0     		add	sp, sp, #16
 7383              	.LCFI647:
ARM GAS  /tmp/cckyA7fG.s 			page 143


 7384              		.cfi_def_cfa_offset 0
 7385 0040 7047     		bx	lr
 7386              		.cfi_endproc
 7387              	.LFE231:
 7389 0042 00BF     		.section	.text.B3M_ModelTypeDevice_ReadOnly,"ax",%progbits
 7390              		.align	2
 7391              		.global	B3M_ModelTypeDevice_ReadOnly
 7392              		.thumb
 7393              		.thumb_func
 7395              	B3M_ModelTypeDevice_ReadOnly:
 7396              	.LFB232:
 909:Src/B3M.c     **** 
 910:Src/B3M.c     **** uint8_t B3M_ModelTypeDevice_ReadOnly(UART_HandleTypeDef huart, uint8_t SERVO_ID)
 911:Src/B3M.c     **** {
 7397              		.loc 1 911 0
 7398              		.cfi_startproc
 7399              		@ args = 68, pretend = 16, frame = 0
 7400              		@ frame_needed = 0, uses_anonymous_args = 0
 7401              	.LVL307:
 7402 0000 84B0     		sub	sp, sp, #16
 7403              	.LCFI648:
 7404              		.cfi_def_cfa_offset 16
 7405 0002 30B5     		push	{r4, r5, lr}
 7406              	.LCFI649:
 7407              		.cfi_def_cfa_offset 28
 7408              		.cfi_offset 4, -28
 7409              		.cfi_offset 5, -24
 7410              		.cfi_offset 14, -20
 7411 0004 91B0     		sub	sp, sp, #68
 7412              	.LCFI650:
 7413              		.cfi_def_cfa_offset 96
 7414 0006 14AC     		add	r4, sp, #80
 7415 0008 84E80F00 		stmia	r4, {r0, r1, r2, r3}
 912:Src/B3M.c     **** 	B3M_Read(huart, SERVO_ID, CONFIG_MODEL_TYPE_DEVICE, READ_LENGTH_1B);
 7416              		.loc 1 912 0
 7417 000c 0123     		movs	r3, #1
 7418 000e 0E93     		str	r3, [sp, #56]
 7419 0010 A923     		movs	r3, #169
 7420 0012 0D93     		str	r3, [sp, #52]
 7421 0014 9DF89030 		ldrb	r3, [sp, #144]	@ zero_extendqisi2
 7422 0018 0C93     		str	r3, [sp, #48]
 7423 001a 6C46     		mov	r4, sp
 7424 001c 18AD     		add	r5, sp, #96
 7425 001e 0FCD     		ldmia	r5!, {r0, r1, r2, r3}
 7426 0020 0FC4     		stmia	r4!, {r0, r1, r2, r3}
 7427 0022 0FCD     		ldmia	r5!, {r0, r1, r2, r3}
 7428 0024 0FC4     		stmia	r4!, {r0, r1, r2, r3}
 7429 0026 95E80F00 		ldmia	r5, {r0, r1, r2, r3}
 7430 002a 84E80F00 		stmia	r4, {r0, r1, r2, r3}
 7431 002e 14AB     		add	r3, sp, #80
 7432 0030 0FCB     		ldmia	r3, {r0, r1, r2, r3}
 7433 0032 FFF7FEFF 		bl	B3M_Read
 7434              	.LVL308:
 913:Src/B3M.c     **** 	return 0;
 914:Src/B3M.c     **** }
 7435              		.loc 1 914 0
 7436 0036 0020     		movs	r0, #0
ARM GAS  /tmp/cckyA7fG.s 			page 144


 7437 0038 11B0     		add	sp, sp, #68
 7438              	.LCFI651:
 7439              		.cfi_def_cfa_offset 28
 7440              		@ sp needed
 7441 003a BDE83040 		pop	{r4, r5, lr}
 7442              	.LCFI652:
 7443              		.cfi_restore 14
 7444              		.cfi_restore 5
 7445              		.cfi_restore 4
 7446              		.cfi_def_cfa_offset 16
 7447 003e 04B0     		add	sp, sp, #16
 7448              	.LCFI653:
 7449              		.cfi_def_cfa_offset 0
 7450 0040 7047     		bx	lr
 7451              		.cfi_endproc
 7452              	.LFE232:
 7454 0042 00BF     		.section	.text.B3M_FWVersion_ReadOnly,"ax",%progbits
 7455              		.align	2
 7456              		.global	B3M_FWVersion_ReadOnly
 7457              		.thumb
 7458              		.thumb_func
 7460              	B3M_FWVersion_ReadOnly:
 7461              	.LFB233:
 915:Src/B3M.c     **** 
 916:Src/B3M.c     **** uint8_t B3M_FWVersion_ReadOnly(UART_HandleTypeDef huart, uint8_t SERVO_ID)
 917:Src/B3M.c     **** {
 7462              		.loc 1 917 0
 7463              		.cfi_startproc
 7464              		@ args = 68, pretend = 16, frame = 0
 7465              		@ frame_needed = 0, uses_anonymous_args = 0
 7466              	.LVL309:
 7467 0000 84B0     		sub	sp, sp, #16
 7468              	.LCFI654:
 7469              		.cfi_def_cfa_offset 16
 7470 0002 30B5     		push	{r4, r5, lr}
 7471              	.LCFI655:
 7472              		.cfi_def_cfa_offset 28
 7473              		.cfi_offset 4, -28
 7474              		.cfi_offset 5, -24
 7475              		.cfi_offset 14, -20
 7476 0004 91B0     		sub	sp, sp, #68
 7477              	.LCFI656:
 7478              		.cfi_def_cfa_offset 96
 7479 0006 14AC     		add	r4, sp, #80
 7480 0008 84E80F00 		stmia	r4, {r0, r1, r2, r3}
 918:Src/B3M.c     **** 	B3M_Read(huart, SERVO_ID, CONFIG_FW_VERSION, READ_LENGTH_4B);
 7481              		.loc 1 918 0
 7482 000c 0423     		movs	r3, #4
 7483 000e 0E93     		str	r3, [sp, #56]
 7484 0010 AA23     		movs	r3, #170
 7485 0012 0D93     		str	r3, [sp, #52]
 7486 0014 9DF89030 		ldrb	r3, [sp, #144]	@ zero_extendqisi2
 7487 0018 0C93     		str	r3, [sp, #48]
 7488 001a 6C46     		mov	r4, sp
 7489 001c 18AD     		add	r5, sp, #96
 7490 001e 0FCD     		ldmia	r5!, {r0, r1, r2, r3}
 7491 0020 0FC4     		stmia	r4!, {r0, r1, r2, r3}
ARM GAS  /tmp/cckyA7fG.s 			page 145


 7492 0022 0FCD     		ldmia	r5!, {r0, r1, r2, r3}
 7493 0024 0FC4     		stmia	r4!, {r0, r1, r2, r3}
 7494 0026 95E80F00 		ldmia	r5, {r0, r1, r2, r3}
 7495 002a 84E80F00 		stmia	r4, {r0, r1, r2, r3}
 7496 002e 14AB     		add	r3, sp, #80
 7497 0030 0FCB     		ldmia	r3, {r0, r1, r2, r3}
 7498 0032 FFF7FEFF 		bl	B3M_Read
 7499              	.LVL310:
 919:Src/B3M.c     **** 	return 0;
 920:Src/B3M.c     **** }
 7500              		.loc 1 920 0
 7501 0036 0020     		movs	r0, #0
 7502 0038 11B0     		add	sp, sp, #68
 7503              	.LCFI657:
 7504              		.cfi_def_cfa_offset 28
 7505              		@ sp needed
 7506 003a BDE83040 		pop	{r4, r5, lr}
 7507              	.LCFI658:
 7508              		.cfi_restore 14
 7509              		.cfi_restore 5
 7510              		.cfi_restore 4
 7511              		.cfi_def_cfa_offset 16
 7512 003e 04B0     		add	sp, sp, #16
 7513              	.LCFI659:
 7514              		.cfi_def_cfa_offset 0
 7515 0040 7047     		bx	lr
 7516              		.cfi_endproc
 7517              	.LFE233:
 7519 0042 00BF     		.section	.text.B3M_FWRevision_ReadOnly,"ax",%progbits
 7520              		.align	2
 7521              		.global	B3M_FWRevision_ReadOnly
 7522              		.thumb
 7523              		.thumb_func
 7525              	B3M_FWRevision_ReadOnly:
 7526              	.LFB234:
 921:Src/B3M.c     **** 
 922:Src/B3M.c     **** uint8_t B3M_FWRevision_ReadOnly(UART_HandleTypeDef huart, uint8_t SERVO_ID)
 923:Src/B3M.c     **** {
 7527              		.loc 1 923 0
 7528              		.cfi_startproc
 7529              		@ args = 68, pretend = 16, frame = 0
 7530              		@ frame_needed = 0, uses_anonymous_args = 0
 7531              	.LVL311:
 7532 0000 84B0     		sub	sp, sp, #16
 7533              	.LCFI660:
 7534              		.cfi_def_cfa_offset 16
 7535 0002 30B5     		push	{r4, r5, lr}
 7536              	.LCFI661:
 7537              		.cfi_def_cfa_offset 28
 7538              		.cfi_offset 4, -28
 7539              		.cfi_offset 5, -24
 7540              		.cfi_offset 14, -20
 7541 0004 91B0     		sub	sp, sp, #68
 7542              	.LCFI662:
 7543              		.cfi_def_cfa_offset 96
 7544 0006 14AC     		add	r4, sp, #80
 7545 0008 84E80F00 		stmia	r4, {r0, r1, r2, r3}
ARM GAS  /tmp/cckyA7fG.s 			page 146


 924:Src/B3M.c     **** 	B3M_Read(huart, SERVO_ID, CONFIG_FW_REVISION, READ_LENGTH_1B);
 7546              		.loc 1 924 0
 7547 000c 0123     		movs	r3, #1
 7548 000e 0E93     		str	r3, [sp, #56]
 7549 0010 AB23     		movs	r3, #171
 7550 0012 0D93     		str	r3, [sp, #52]
 7551 0014 9DF89030 		ldrb	r3, [sp, #144]	@ zero_extendqisi2
 7552 0018 0C93     		str	r3, [sp, #48]
 7553 001a 6C46     		mov	r4, sp
 7554 001c 18AD     		add	r5, sp, #96
 7555 001e 0FCD     		ldmia	r5!, {r0, r1, r2, r3}
 7556 0020 0FC4     		stmia	r4!, {r0, r1, r2, r3}
 7557 0022 0FCD     		ldmia	r5!, {r0, r1, r2, r3}
 7558 0024 0FC4     		stmia	r4!, {r0, r1, r2, r3}
 7559 0026 95E80F00 		ldmia	r5, {r0, r1, r2, r3}
 7560 002a 84E80F00 		stmia	r4, {r0, r1, r2, r3}
 7561 002e 14AB     		add	r3, sp, #80
 7562 0030 0FCB     		ldmia	r3, {r0, r1, r2, r3}
 7563 0032 FFF7FEFF 		bl	B3M_Read
 7564              	.LVL312:
 925:Src/B3M.c     **** 	return 0;
 926:Src/B3M.c     **** }
 7565              		.loc 1 926 0
 7566 0036 0020     		movs	r0, #0
 7567 0038 11B0     		add	sp, sp, #68
 7568              	.LCFI663:
 7569              		.cfi_def_cfa_offset 28
 7570              		@ sp needed
 7571 003a BDE83040 		pop	{r4, r5, lr}
 7572              	.LCFI664:
 7573              		.cfi_restore 14
 7574              		.cfi_restore 5
 7575              		.cfi_restore 4
 7576              		.cfi_def_cfa_offset 16
 7577 003e 04B0     		add	sp, sp, #16
 7578              	.LCFI665:
 7579              		.cfi_def_cfa_offset 0
 7580 0040 7047     		bx	lr
 7581              		.cfi_endproc
 7582              	.LFE234:
 7584 0042 00BF     		.section	.text.B3M_FWMinor_ReadOnly,"ax",%progbits
 7585              		.align	2
 7586              		.global	B3M_FWMinor_ReadOnly
 7587              		.thumb
 7588              		.thumb_func
 7590              	B3M_FWMinor_ReadOnly:
 7591              	.LFB235:
 927:Src/B3M.c     **** 
 928:Src/B3M.c     **** uint8_t B3M_FWMinor_ReadOnly(UART_HandleTypeDef huart, uint8_t SERVO_ID)
 929:Src/B3M.c     **** {
 7592              		.loc 1 929 0
 7593              		.cfi_startproc
 7594              		@ args = 68, pretend = 16, frame = 0
 7595              		@ frame_needed = 0, uses_anonymous_args = 0
 7596              	.LVL313:
 7597 0000 84B0     		sub	sp, sp, #16
 7598              	.LCFI666:
ARM GAS  /tmp/cckyA7fG.s 			page 147


 7599              		.cfi_def_cfa_offset 16
 7600 0002 30B5     		push	{r4, r5, lr}
 7601              	.LCFI667:
 7602              		.cfi_def_cfa_offset 28
 7603              		.cfi_offset 4, -28
 7604              		.cfi_offset 5, -24
 7605              		.cfi_offset 14, -20
 7606 0004 91B0     		sub	sp, sp, #68
 7607              	.LCFI668:
 7608              		.cfi_def_cfa_offset 96
 7609 0006 14AC     		add	r4, sp, #80
 7610 0008 84E80F00 		stmia	r4, {r0, r1, r2, r3}
 930:Src/B3M.c     **** 	B3M_Read(huart, SERVO_ID, CONFIG_FW_MINOR, READ_LENGTH_1B);
 7611              		.loc 1 930 0
 7612 000c 0123     		movs	r3, #1
 7613 000e 0E93     		str	r3, [sp, #56]
 7614 0010 AC23     		movs	r3, #172
 7615 0012 0D93     		str	r3, [sp, #52]
 7616 0014 9DF89030 		ldrb	r3, [sp, #144]	@ zero_extendqisi2
 7617 0018 0C93     		str	r3, [sp, #48]
 7618 001a 6C46     		mov	r4, sp
 7619 001c 18AD     		add	r5, sp, #96
 7620 001e 0FCD     		ldmia	r5!, {r0, r1, r2, r3}
 7621 0020 0FC4     		stmia	r4!, {r0, r1, r2, r3}
 7622 0022 0FCD     		ldmia	r5!, {r0, r1, r2, r3}
 7623 0024 0FC4     		stmia	r4!, {r0, r1, r2, r3}
 7624 0026 95E80F00 		ldmia	r5, {r0, r1, r2, r3}
 7625 002a 84E80F00 		stmia	r4, {r0, r1, r2, r3}
 7626 002e 14AB     		add	r3, sp, #80
 7627 0030 0FCB     		ldmia	r3, {r0, r1, r2, r3}
 7628 0032 FFF7FEFF 		bl	B3M_Read
 7629              	.LVL314:
 931:Src/B3M.c     **** 	return 0;
 932:Src/B3M.c     **** }
 7630              		.loc 1 932 0
 7631 0036 0020     		movs	r0, #0
 7632 0038 11B0     		add	sp, sp, #68
 7633              	.LCFI669:
 7634              		.cfi_def_cfa_offset 28
 7635              		@ sp needed
 7636 003a BDE83040 		pop	{r4, r5, lr}
 7637              	.LCFI670:
 7638              		.cfi_restore 14
 7639              		.cfi_restore 5
 7640              		.cfi_restore 4
 7641              		.cfi_def_cfa_offset 16
 7642 003e 04B0     		add	sp, sp, #16
 7643              	.LCFI671:
 7644              		.cfi_def_cfa_offset 0
 7645 0040 7047     		bx	lr
 7646              		.cfi_endproc
 7647              	.LFE235:
 7649 0042 00BF     		.section	.text.B3M_FWMajor_ReadOnly,"ax",%progbits
 7650              		.align	2
 7651              		.global	B3M_FWMajor_ReadOnly
 7652              		.thumb
 7653              		.thumb_func
ARM GAS  /tmp/cckyA7fG.s 			page 148


 7655              	B3M_FWMajor_ReadOnly:
 7656              	.LFB236:
 933:Src/B3M.c     **** 
 934:Src/B3M.c     **** uint8_t B3M_FWMajor_ReadOnly(UART_HandleTypeDef huart, uint8_t SERVO_ID)
 935:Src/B3M.c     **** {
 7657              		.loc 1 935 0
 7658              		.cfi_startproc
 7659              		@ args = 68, pretend = 16, frame = 0
 7660              		@ frame_needed = 0, uses_anonymous_args = 0
 7661              	.LVL315:
 7662 0000 84B0     		sub	sp, sp, #16
 7663              	.LCFI672:
 7664              		.cfi_def_cfa_offset 16
 7665 0002 30B5     		push	{r4, r5, lr}
 7666              	.LCFI673:
 7667              		.cfi_def_cfa_offset 28
 7668              		.cfi_offset 4, -28
 7669              		.cfi_offset 5, -24
 7670              		.cfi_offset 14, -20
 7671 0004 91B0     		sub	sp, sp, #68
 7672              	.LCFI674:
 7673              		.cfi_def_cfa_offset 96
 7674 0006 14AC     		add	r4, sp, #80
 7675 0008 84E80F00 		stmia	r4, {r0, r1, r2, r3}
 936:Src/B3M.c     **** 	B3M_Read(huart, SERVO_ID, CONFIG_FW_MAJOR, READ_LENGTH_1B);
 7676              		.loc 1 936 0
 7677 000c 0123     		movs	r3, #1
 7678 000e 0E93     		str	r3, [sp, #56]
 7679 0010 AD23     		movs	r3, #173
 7680 0012 0D93     		str	r3, [sp, #52]
 7681 0014 9DF89030 		ldrb	r3, [sp, #144]	@ zero_extendqisi2
 7682 0018 0C93     		str	r3, [sp, #48]
 7683 001a 6C46     		mov	r4, sp
 7684 001c 18AD     		add	r5, sp, #96
 7685 001e 0FCD     		ldmia	r5!, {r0, r1, r2, r3}
 7686 0020 0FC4     		stmia	r4!, {r0, r1, r2, r3}
 7687 0022 0FCD     		ldmia	r5!, {r0, r1, r2, r3}
 7688 0024 0FC4     		stmia	r4!, {r0, r1, r2, r3}
 7689 0026 95E80F00 		ldmia	r5, {r0, r1, r2, r3}
 7690 002a 84E80F00 		stmia	r4, {r0, r1, r2, r3}
 7691 002e 14AB     		add	r3, sp, #80
 7692 0030 0FCB     		ldmia	r3, {r0, r1, r2, r3}
 7693 0032 FFF7FEFF 		bl	B3M_Read
 7694              	.LVL316:
 937:Src/B3M.c     **** 	return 0;
 938:Src/B3M.c     **** }
 7695              		.loc 1 938 0
 7696 0036 0020     		movs	r0, #0
 7697 0038 11B0     		add	sp, sp, #68
 7698              	.LCFI675:
 7699              		.cfi_def_cfa_offset 28
 7700              		@ sp needed
 7701 003a BDE83040 		pop	{r4, r5, lr}
 7702              	.LCFI676:
 7703              		.cfi_restore 14
 7704              		.cfi_restore 5
 7705              		.cfi_restore 4
ARM GAS  /tmp/cckyA7fG.s 			page 149


 7706              		.cfi_def_cfa_offset 16
 7707 003e 04B0     		add	sp, sp, #16
 7708              	.LCFI677:
 7709              		.cfi_def_cfa_offset 0
 7710 0040 7047     		bx	lr
 7711              		.cfi_endproc
 7712              	.LFE236:
 7714 0042 00BF     		.section	.text.B3M_EncOffsetCenter_ReadOnly,"ax",%progbits
 7715              		.align	2
 7716              		.global	B3M_EncOffsetCenter_ReadOnly
 7717              		.thumb
 7718              		.thumb_func
 7720              	B3M_EncOffsetCenter_ReadOnly:
 7721              	.LFB237:
 939:Src/B3M.c     **** 
 940:Src/B3M.c     **** uint8_t B3M_EncOffsetCenter_ReadOnly(UART_HandleTypeDef huart, uint8_t SERVO_ID)
 941:Src/B3M.c     **** {
 7722              		.loc 1 941 0
 7723              		.cfi_startproc
 7724              		@ args = 68, pretend = 16, frame = 0
 7725              		@ frame_needed = 0, uses_anonymous_args = 0
 7726              	.LVL317:
 7727 0000 84B0     		sub	sp, sp, #16
 7728              	.LCFI678:
 7729              		.cfi_def_cfa_offset 16
 7730 0002 30B5     		push	{r4, r5, lr}
 7731              	.LCFI679:
 7732              		.cfi_def_cfa_offset 28
 7733              		.cfi_offset 4, -28
 7734              		.cfi_offset 5, -24
 7735              		.cfi_offset 14, -20
 7736 0004 91B0     		sub	sp, sp, #68
 7737              	.LCFI680:
 7738              		.cfi_def_cfa_offset 96
 7739 0006 14AC     		add	r4, sp, #80
 7740 0008 84E80F00 		stmia	r4, {r0, r1, r2, r3}
 942:Src/B3M.c     **** 	B3M_Read(huart, SERVO_ID, CONFIG_ENC_OFFSET_CENTER, READ_LENGTH_1B);
 7741              		.loc 1 942 0
 7742 000c 0123     		movs	r3, #1
 7743 000e 0E93     		str	r3, [sp, #56]
 7744 0010 AE23     		movs	r3, #174
 7745 0012 0D93     		str	r3, [sp, #52]
 7746 0014 9DF89030 		ldrb	r3, [sp, #144]	@ zero_extendqisi2
 7747 0018 0C93     		str	r3, [sp, #48]
 7748 001a 6C46     		mov	r4, sp
 7749 001c 18AD     		add	r5, sp, #96
 7750 001e 0FCD     		ldmia	r5!, {r0, r1, r2, r3}
 7751 0020 0FC4     		stmia	r4!, {r0, r1, r2, r3}
 7752 0022 0FCD     		ldmia	r5!, {r0, r1, r2, r3}
 7753 0024 0FC4     		stmia	r4!, {r0, r1, r2, r3}
 7754 0026 95E80F00 		ldmia	r5, {r0, r1, r2, r3}
 7755 002a 84E80F00 		stmia	r4, {r0, r1, r2, r3}
 7756 002e 14AB     		add	r3, sp, #80
 7757 0030 0FCB     		ldmia	r3, {r0, r1, r2, r3}
 7758 0032 FFF7FEFF 		bl	B3M_Read
 7759              	.LVL318:
 943:Src/B3M.c     **** 	return 0;
ARM GAS  /tmp/cckyA7fG.s 			page 150


 944:Src/B3M.c     **** }
 7760              		.loc 1 944 0
 7761 0036 0020     		movs	r0, #0
 7762 0038 11B0     		add	sp, sp, #68
 7763              	.LCFI681:
 7764              		.cfi_def_cfa_offset 28
 7765              		@ sp needed
 7766 003a BDE83040 		pop	{r4, r5, lr}
 7767              	.LCFI682:
 7768              		.cfi_restore 14
 7769              		.cfi_restore 5
 7770              		.cfi_restore 4
 7771              		.cfi_def_cfa_offset 16
 7772 003e 04B0     		add	sp, sp, #16
 7773              	.LCFI683:
 7774              		.cfi_def_cfa_offset 0
 7775 0040 7047     		bx	lr
 7776              		.cfi_endproc
 7777              	.LFE237:
 7779 0042 00BF     		.section	.text.B3M_EncOffset_ReadOnly,"ax",%progbits
 7780              		.align	2
 7781              		.global	B3M_EncOffset_ReadOnly
 7782              		.thumb
 7783              		.thumb_func
 7785              	B3M_EncOffset_ReadOnly:
 7786              	.LFB238:
 945:Src/B3M.c     **** 
 946:Src/B3M.c     **** uint8_t B3M_EncOffset_ReadOnly(UART_HandleTypeDef huart, uint8_t SERVO_ID)
 947:Src/B3M.c     **** {
 7787              		.loc 1 947 0
 7788              		.cfi_startproc
 7789              		@ args = 68, pretend = 16, frame = 0
 7790              		@ frame_needed = 0, uses_anonymous_args = 0
 7791              	.LVL319:
 7792 0000 84B0     		sub	sp, sp, #16
 7793              	.LCFI684:
 7794              		.cfi_def_cfa_offset 16
 7795 0002 30B5     		push	{r4, r5, lr}
 7796              	.LCFI685:
 7797              		.cfi_def_cfa_offset 28
 7798              		.cfi_offset 4, -28
 7799              		.cfi_offset 5, -24
 7800              		.cfi_offset 14, -20
 7801 0004 91B0     		sub	sp, sp, #68
 7802              	.LCFI686:
 7803              		.cfi_def_cfa_offset 96
 7804 0006 14AC     		add	r4, sp, #80
 7805 0008 84E80F00 		stmia	r4, {r0, r1, r2, r3}
 948:Src/B3M.c     **** 	B3M_Read(huart, SERVO_ID, CONFIG_ENC_OFFSET, READ_LENGTH_1B);
 7806              		.loc 1 948 0
 7807 000c 0123     		movs	r3, #1
 7808 000e 0E93     		str	r3, [sp, #56]
 7809 0010 B023     		movs	r3, #176
 7810 0012 0D93     		str	r3, [sp, #52]
 7811 0014 9DF89030 		ldrb	r3, [sp, #144]	@ zero_extendqisi2
 7812 0018 0C93     		str	r3, [sp, #48]
 7813 001a 6C46     		mov	r4, sp
ARM GAS  /tmp/cckyA7fG.s 			page 151


 7814 001c 18AD     		add	r5, sp, #96
 7815 001e 0FCD     		ldmia	r5!, {r0, r1, r2, r3}
 7816 0020 0FC4     		stmia	r4!, {r0, r1, r2, r3}
 7817 0022 0FCD     		ldmia	r5!, {r0, r1, r2, r3}
 7818 0024 0FC4     		stmia	r4!, {r0, r1, r2, r3}
 7819 0026 95E80F00 		ldmia	r5, {r0, r1, r2, r3}
 7820 002a 84E80F00 		stmia	r4, {r0, r1, r2, r3}
 7821 002e 14AB     		add	r3, sp, #80
 7822 0030 0FCB     		ldmia	r3, {r0, r1, r2, r3}
 7823 0032 FFF7FEFF 		bl	B3M_Read
 7824              	.LVL320:
 949:Src/B3M.c     **** 	return 0;
 950:Src/B3M.c     **** }
 7825              		.loc 1 950 0
 7826 0036 0020     		movs	r0, #0
 7827 0038 11B0     		add	sp, sp, #68
 7828              	.LCFI687:
 7829              		.cfi_def_cfa_offset 28
 7830              		@ sp needed
 7831 003a BDE83040 		pop	{r4, r5, lr}
 7832              	.LCFI688:
 7833              		.cfi_restore 14
 7834              		.cfi_restore 5
 7835              		.cfi_restore 4
 7836              		.cfi_def_cfa_offset 16
 7837 003e 04B0     		add	sp, sp, #16
 7838              	.LCFI689:
 7839              		.cfi_def_cfa_offset 0
 7840 0040 7047     		bx	lr
 7841              		.cfi_endproc
 7842              	.LFE238:
 7844 0042 00BF     		.text
 7845              	.Letext0:
 7846              		.file 2 "/home/ryouya/STM32Toolchain/gcc-arm-none-eabi-5_4-2016q3.2/arm-none-eabi/include/machine/
 7847              		.file 3 "/home/ryouya/STM32Toolchain/gcc-arm-none-eabi-5_4-2016q3.2/arm-none-eabi/include/sys/_std
 7848              		.file 4 "Drivers/CMSIS/Device/ST/STM32F4xx/Include/stm32f401xe.h"
 7849              		.file 5 "Drivers/STM32F4xx_HAL_Driver/Inc/stm32f4xx_hal_def.h"
 7850              		.file 6 "Drivers/STM32F4xx_HAL_Driver/Inc/stm32f4xx_hal_dma.h"
 7851              		.file 7 "Drivers/STM32F4xx_HAL_Driver/Inc/stm32f4xx_hal_uart.h"
 7852              		.file 8 "Drivers/STM32F4xx_HAL_Driver/Inc/stm32f4xx_hal.h"
 7853              		.file 9 "Drivers/CMSIS/Include/core_cm4.h"
ARM GAS  /tmp/cckyA7fG.s 			page 152


DEFINED SYMBOLS
                            *ABS*:00000000 B3M.c
     /tmp/cckyA7fG.s:22     .text.B3M_Load:00000000 $t
     /tmp/cckyA7fG.s:27     .text.B3M_Load:00000000 B3M_Load
     /tmp/cckyA7fG.s:118    .text.B3M_Save:00000000 $t
     /tmp/cckyA7fG.s:123    .text.B3M_Save:00000000 B3M_Save
     /tmp/cckyA7fG.s:213    .text.B3M_Read:00000000 $t
     /tmp/cckyA7fG.s:218    .text.B3M_Read:00000000 B3M_Read
     /tmp/cckyA7fG.s:314    .text.B3M_Write_1B:00000000 $t
     /tmp/cckyA7fG.s:319    .text.B3M_Write_1B:00000000 B3M_Write_1B
     /tmp/cckyA7fG.s:418    .text.B3M_Write_2B:00000000 $t
     /tmp/cckyA7fG.s:423    .text.B3M_Write_2B:00000000 B3M_Write_2B
     /tmp/cckyA7fG.s:525    .text.B3M_Write_4B:00000000 $t
     /tmp/cckyA7fG.s:530    .text.B3M_Write_4B:00000000 B3M_Write_4B
     /tmp/cckyA7fG.s:637    .text.B3M_Reset:00000000 $t
     /tmp/cckyA7fG.s:642    .text.B3M_Reset:00000000 B3M_Reset
     /tmp/cckyA7fG.s:734    .text.B3M_SetDesirePostion:00000000 $t
     /tmp/cckyA7fG.s:739    .text.B3M_SetDesirePostion:00000000 B3M_SetDesirePostion
     /tmp/cckyA7fG.s:838    .text.B3M_SetPosition:00000000 $t
     /tmp/cckyA7fG.s:843    .text.B3M_SetPosition:00000000 B3M_SetPosition
     /tmp/cckyA7fG.s:946    .text.B3M_RunNormal:00000000 $t
     /tmp/cckyA7fG.s:951    .text.B3M_RunNormal:00000000 B3M_RunNormal
     /tmp/cckyA7fG.s:1013   .text.B3M_RunFree:00000000 $t
     /tmp/cckyA7fG.s:1018   .text.B3M_RunFree:00000000 B3M_RunFree
     /tmp/cckyA7fG.s:1078   .text.B3M_RunHold:00000000 $t
     /tmp/cckyA7fG.s:1083   .text.B3M_RunHold:00000000 B3M_RunHold
     /tmp/cckyA7fG.s:1143   .text.B3M_ControlPosition:00000000 $t
     /tmp/cckyA7fG.s:1148   .text.B3M_ControlPosition:00000000 B3M_ControlPosition
     /tmp/cckyA7fG.s:1210   .text.B3M_ControlVelocity:00000000 $t
     /tmp/cckyA7fG.s:1215   .text.B3M_ControlVelocity:00000000 B3M_ControlVelocity
     /tmp/cckyA7fG.s:1275   .text.B3M_ControlTorque:00000000 $t
     /tmp/cckyA7fG.s:1280   .text.B3M_ControlTorque:00000000 B3M_ControlTorque
     /tmp/cckyA7fG.s:1340   .text.B3M_ControlFeedForward:00000000 $t
     /tmp/cckyA7fG.s:1345   .text.B3M_ControlFeedForward:00000000 B3M_ControlFeedForward
     /tmp/cckyA7fG.s:1405   .text.B3M_ServoNormal:00000000 $t
     /tmp/cckyA7fG.s:1410   .text.B3M_ServoNormal:00000000 B3M_ServoNormal
     /tmp/cckyA7fG.s:1472   .text.B3M_ServoClone:00000000 $t
     /tmp/cckyA7fG.s:1477   .text.B3M_ServoClone:00000000 B3M_ServoClone
     /tmp/cckyA7fG.s:1536   .text.B3M_ServoReverse:00000000 $t
     /tmp/cckyA7fG.s:1541   .text.B3M_ServoReverse:00000000 B3M_ServoReverse
     /tmp/cckyA7fG.s:1601   .text.B3M_SystemID_Read:00000000 $t
     /tmp/cckyA7fG.s:1606   .text.B3M_SystemID_Read:00000000 B3M_SystemID_Read
     /tmp/cckyA7fG.s:1668   .text.B3M_SystemID_Write:00000000 $t
     /tmp/cckyA7fG.s:1673   .text.B3M_SystemID_Write:00000000 B3M_SystemID_Write
     /tmp/cckyA7fG.s:1735   .text.B3M_SystemBaudrate_Read:00000000 $t
     /tmp/cckyA7fG.s:1740   .text.B3M_SystemBaudrate_Read:00000000 B3M_SystemBaudrate_Read
     /tmp/cckyA7fG.s:1800   .text.B3M_SystemBaudrate_Write:00000000 $t
     /tmp/cckyA7fG.s:1805   .text.B3M_SystemBaudrate_Write:00000000 B3M_SystemBaudrate_Write
     /tmp/cckyA7fG.s:1865   .text.B3M_PositionMin_Read:00000000 $t
     /tmp/cckyA7fG.s:1870   .text.B3M_PositionMin_Read:00000000 B3M_PositionMin_Read
     /tmp/cckyA7fG.s:1930   .text.B3M_PositionMin_Write:00000000 $t
     /tmp/cckyA7fG.s:1935   .text.B3M_PositionMin_Write:00000000 B3M_PositionMin_Write
     /tmp/cckyA7fG.s:1995   .text.B3M_PositionMax_Read:00000000 $t
     /tmp/cckyA7fG.s:2000   .text.B3M_PositionMax_Read:00000000 B3M_PositionMax_Read
     /tmp/cckyA7fG.s:2060   .text.B3M_PositionMax_Write:00000000 $t
     /tmp/cckyA7fG.s:2065   .text.B3M_PositionMax_Write:00000000 B3M_PositionMax_Write
     /tmp/cckyA7fG.s:2125   .text.B3M_PositionCenter_Read:00000000 $t
ARM GAS  /tmp/cckyA7fG.s 			page 153


     /tmp/cckyA7fG.s:2130   .text.B3M_PositionCenter_Read:00000000 B3M_PositionCenter_Read
     /tmp/cckyA7fG.s:2190   .text.B3M_PositionCenter_Write:00000000 $t
     /tmp/cckyA7fG.s:2195   .text.B3M_PositionCenter_Write:00000000 B3M_PositionCenter_Write
     /tmp/cckyA7fG.s:2255   .text.B3M_MCUTempLimit_Read:00000000 $t
     /tmp/cckyA7fG.s:2260   .text.B3M_MCUTempLimit_Read:00000000 B3M_MCUTempLimit_Read
     /tmp/cckyA7fG.s:2320   .text.B3M_MCUTempLimit_Write:00000000 $t
     /tmp/cckyA7fG.s:2325   .text.B3M_MCUTempLimit_Write:00000000 B3M_MCUTempLimit_Write
     /tmp/cckyA7fG.s:2385   .text.B3M_MCUTempLimitPR_Read:00000000 $t
     /tmp/cckyA7fG.s:2390   .text.B3M_MCUTempLimitPR_Read:00000000 B3M_MCUTempLimitPR_Read
     /tmp/cckyA7fG.s:2450   .text.B3M_MCUTempLimitPR_Write:00000000 $t
     /tmp/cckyA7fG.s:2455   .text.B3M_MCUTempLimitPR_Write:00000000 B3M_MCUTempLimitPR_Write
     /tmp/cckyA7fG.s:2515   .text.B3M_MotorTempLimit_Read:00000000 $t
     /tmp/cckyA7fG.s:2520   .text.B3M_MotorTempLimit_Read:00000000 B3M_MotorTempLimit_Read
     /tmp/cckyA7fG.s:2580   .text.B3M_MotorTempLimit_Write:00000000 $t
     /tmp/cckyA7fG.s:2585   .text.B3M_MotorTempLimit_Write:00000000 B3M_MotorTempLimit_Write
     /tmp/cckyA7fG.s:2645   .text.B3M_MotorTempLimitPR_Read:00000000 $t
     /tmp/cckyA7fG.s:2650   .text.B3M_MotorTempLimitPR_Read:00000000 B3M_MotorTempLimitPR_Read
     /tmp/cckyA7fG.s:2710   .text.B3M_MotorTempLimitPR_Write:00000000 $t
     /tmp/cckyA7fG.s:2715   .text.B3M_MotorTempLimitPR_Write:00000000 B3M_MotorTempLimitPR_Write
     /tmp/cckyA7fG.s:2775   .text.B3M_CurrentLimit_Read:00000000 $t
     /tmp/cckyA7fG.s:2780   .text.B3M_CurrentLimit_Read:00000000 B3M_CurrentLimit_Read
     /tmp/cckyA7fG.s:2840   .text.B3M_CurrentLimit_Write:00000000 $t
     /tmp/cckyA7fG.s:2845   .text.B3M_CurrentLimit_Write:00000000 B3M_CurrentLimit_Write
     /tmp/cckyA7fG.s:2905   .text.B3M_CurrentLimitPR_Read:00000000 $t
     /tmp/cckyA7fG.s:2910   .text.B3M_CurrentLimitPR_Read:00000000 B3M_CurrentLimitPR_Read
     /tmp/cckyA7fG.s:2970   .text.B3M_CurrentLimitPR_Write:00000000 $t
     /tmp/cckyA7fG.s:2975   .text.B3M_CurrentLimitPR_Write:00000000 B3M_CurrentLimitPR_Write
     /tmp/cckyA7fG.s:3035   .text.B3M_LockDetectTime_Read:00000000 $t
     /tmp/cckyA7fG.s:3040   .text.B3M_LockDetectTime_Read:00000000 B3M_LockDetectTime_Read
     /tmp/cckyA7fG.s:3100   .text.B3M_LockDetectTime_Write:00000000 $t
     /tmp/cckyA7fG.s:3105   .text.B3M_LockDetectTime_Write:00000000 B3M_LockDetectTime_Write
     /tmp/cckyA7fG.s:3165   .text.B3M_LockDetectOutrate_Read:00000000 $t
     /tmp/cckyA7fG.s:3170   .text.B3M_LockDetectOutrate_Read:00000000 B3M_LockDetectOutrate_Read
     /tmp/cckyA7fG.s:3230   .text.B3M_LockDetectOutrate_Write:00000000 $t
     /tmp/cckyA7fG.s:3235   .text.B3M_LockDetectOutrate_Write:00000000 B3M_LockDetectOutrate_Write
     /tmp/cckyA7fG.s:3295   .text.B3M_LockDetectTimePR_Read:00000000 $t
     /tmp/cckyA7fG.s:3300   .text.B3M_LockDetectTimePR_Read:00000000 B3M_LockDetectTimePR_Read
     /tmp/cckyA7fG.s:3360   .text.B3M_LockDetectTimePR_Write:00000000 $t
     /tmp/cckyA7fG.s:3365   .text.B3M_LockDetectTimePR_Write:00000000 B3M_LockDetectTimePR_Write
     /tmp/cckyA7fG.s:3425   .text.B3M_InputVoltageMin_Read:00000000 $t
     /tmp/cckyA7fG.s:3430   .text.B3M_InputVoltageMin_Read:00000000 B3M_InputVoltageMin_Read
     /tmp/cckyA7fG.s:3490   .text.B3M_InputVoltageMin_Write:00000000 $t
     /tmp/cckyA7fG.s:3495   .text.B3M_InputVoltageMin_Write:00000000 B3M_InputVoltageMin_Write
     /tmp/cckyA7fG.s:3555   .text.B3M_InputVoltageMax_Read:00000000 $t
     /tmp/cckyA7fG.s:3560   .text.B3M_InputVoltageMax_Read:00000000 B3M_InputVoltageMax_Read
     /tmp/cckyA7fG.s:3620   .text.B3M_InputVoltageMax_Write:00000000 $t
     /tmp/cckyA7fG.s:3625   .text.B3M_InputVoltageMax_Write:00000000 B3M_InputVoltageMax_Write
     /tmp/cckyA7fG.s:3685   .text.B3M_TorqueLimit_Read:00000000 $t
     /tmp/cckyA7fG.s:3690   .text.B3M_TorqueLimit_Read:00000000 B3M_TorqueLimit_Read
     /tmp/cckyA7fG.s:3750   .text.B3M_TorqueLimit_Write:00000000 $t
     /tmp/cckyA7fG.s:3755   .text.B3M_TorqueLimit_Write:00000000 B3M_TorqueLimit_Write
     /tmp/cckyA7fG.s:3815   .text.B3M_DeadBandWidth_Read:00000000 $t
     /tmp/cckyA7fG.s:3820   .text.B3M_DeadBandWidth_Read:00000000 B3M_DeadBandWidth_Read
     /tmp/cckyA7fG.s:3880   .text.B3M_DeadBandWidth_Write:00000000 $t
     /tmp/cckyA7fG.s:3885   .text.B3M_DeadBandWidth_Write:00000000 B3M_DeadBandWidth_Write
     /tmp/cckyA7fG.s:3945   .text.B3M_MotorCWRatio_Read:00000000 $t
     /tmp/cckyA7fG.s:3950   .text.B3M_MotorCWRatio_Read:00000000 B3M_MotorCWRatio_Read
ARM GAS  /tmp/cckyA7fG.s 			page 154


     /tmp/cckyA7fG.s:4010   .text.B3M_MotorCWRatio_Write:00000000 $t
     /tmp/cckyA7fG.s:4015   .text.B3M_MotorCWRatio_Write:00000000 B3M_MotorCWRatio_Write
     /tmp/cckyA7fG.s:4075   .text.B3M_MotorCCWRatio_Read:00000000 $t
     /tmp/cckyA7fG.s:4080   .text.B3M_MotorCCWRatio_Read:00000000 B3M_MotorCCWRatio_Read
     /tmp/cckyA7fG.s:4140   .text.B3M_MotorCCWRatio_Write:00000000 $t
     /tmp/cckyA7fG.s:4145   .text.B3M_MotorCCWRatio_Write:00000000 B3M_MotorCCWRatio_Write
     /tmp/cckyA7fG.s:4205   .text.B3M_ServoOption_Read:00000000 $t
     /tmp/cckyA7fG.s:4210   .text.B3M_ServoOption_Read:00000000 B3M_ServoOption_Read
     /tmp/cckyA7fG.s:4270   .text.B3M_ControlLow_Read:00000000 $t
     /tmp/cckyA7fG.s:4275   .text.B3M_ControlLow_Read:00000000 B3M_ControlLow_Read
     /tmp/cckyA7fG.s:4335   .text.B3M_ControlLow_Write:00000000 $t
     /tmp/cckyA7fG.s:4340   .text.B3M_ControlLow_Write:00000000 B3M_ControlLow_Write
     /tmp/cckyA7fG.s:4400   .text.B3M_GainPresetNO_Read:00000000 $t
     /tmp/cckyA7fG.s:4405   .text.B3M_GainPresetNO_Read:00000000 B3M_GainPresetNO_Read
     /tmp/cckyA7fG.s:4465   .text.B3M_GainPresetNO_Write:00000000 $t
     /tmp/cckyA7fG.s:4470   .text.B3M_GainPresetNO_Write:00000000 B3M_GainPresetNO_Write
     /tmp/cckyA7fG.s:4530   .text.B3M_Type_ReadOnly:00000000 $t
     /tmp/cckyA7fG.s:4535   .text.B3M_Type_ReadOnly:00000000 B3M_Type_ReadOnly
     /tmp/cckyA7fG.s:4595   .text.B3M_KP0_Read:00000000 $t
     /tmp/cckyA7fG.s:4600   .text.B3M_KP0_Read:00000000 B3M_KP0_Read
     /tmp/cckyA7fG.s:4660   .text.B3M_KP0_Write:00000000 $t
     /tmp/cckyA7fG.s:4665   .text.B3M_KP0_Write:00000000 B3M_KP0_Write
     /tmp/cckyA7fG.s:4725   .text.B3M_KD0_Read:00000000 $t
     /tmp/cckyA7fG.s:4730   .text.B3M_KD0_Read:00000000 B3M_KD0_Read
     /tmp/cckyA7fG.s:4790   .text.B3M_KD0_Write:00000000 $t
     /tmp/cckyA7fG.s:4795   .text.B3M_KD0_Write:00000000 B3M_KD0_Write
     /tmp/cckyA7fG.s:4855   .text.B3M_KI0_Read:00000000 $t
     /tmp/cckyA7fG.s:4860   .text.B3M_KI0_Read:00000000 B3M_KI0_Read
     /tmp/cckyA7fG.s:4920   .text.B3M_KI0_Write:00000000 $t
     /tmp/cckyA7fG.s:4925   .text.B3M_KI0_Write:00000000 B3M_KI0_Write
     /tmp/cckyA7fG.s:4985   .text.B3M_StaticFriction0_Read:00000000 $t
     /tmp/cckyA7fG.s:4990   .text.B3M_StaticFriction0_Read:00000000 B3M_StaticFriction0_Read
     /tmp/cckyA7fG.s:5050   .text.B3M_StaticFriction0_Write:00000000 $t
     /tmp/cckyA7fG.s:5055   .text.B3M_StaticFriction0_Write:00000000 B3M_StaticFriction0_Write
     /tmp/cckyA7fG.s:5115   .text.B3M_DynamicFriction0_Read:00000000 $t
     /tmp/cckyA7fG.s:5120   .text.B3M_DynamicFriction0_Read:00000000 B3M_DynamicFriction0_Read
     /tmp/cckyA7fG.s:5180   .text.B3M_DynamicFriction0_Write:00000000 $t
     /tmp/cckyA7fG.s:5185   .text.B3M_DynamicFriction0_Write:00000000 B3M_DynamicFriction0_Write
     /tmp/cckyA7fG.s:5245   .text.B3M_KP1_Read:00000000 $t
     /tmp/cckyA7fG.s:5250   .text.B3M_KP1_Read:00000000 B3M_KP1_Read
     /tmp/cckyA7fG.s:5310   .text.B3M_KP1_Write:00000000 $t
     /tmp/cckyA7fG.s:5315   .text.B3M_KP1_Write:00000000 B3M_KP1_Write
     /tmp/cckyA7fG.s:5375   .text.B3M_KD1_Read:00000000 $t
     /tmp/cckyA7fG.s:5380   .text.B3M_KD1_Read:00000000 B3M_KD1_Read
     /tmp/cckyA7fG.s:5440   .text.B3M_KD1_Write:00000000 $t
     /tmp/cckyA7fG.s:5445   .text.B3M_KD1_Write:00000000 B3M_KD1_Write
     /tmp/cckyA7fG.s:5505   .text.B3M_KI1_Read:00000000 $t
     /tmp/cckyA7fG.s:5510   .text.B3M_KI1_Read:00000000 B3M_KI1_Read
     /tmp/cckyA7fG.s:5570   .text.B3M_KI1_Write:00000000 $t
     /tmp/cckyA7fG.s:5575   .text.B3M_KI1_Write:00000000 B3M_KI1_Write
     /tmp/cckyA7fG.s:5635   .text.B3M_StaticFriction1_Read:00000000 $t
     /tmp/cckyA7fG.s:5640   .text.B3M_StaticFriction1_Read:00000000 B3M_StaticFriction1_Read
     /tmp/cckyA7fG.s:5700   .text.B3M_StaticFriction1_Write:00000000 $t
     /tmp/cckyA7fG.s:5705   .text.B3M_StaticFriction1_Write:00000000 B3M_StaticFriction1_Write
     /tmp/cckyA7fG.s:5765   .text.B3M_DynamicFriction1_Read:00000000 $t
     /tmp/cckyA7fG.s:5770   .text.B3M_DynamicFriction1_Read:00000000 B3M_DynamicFriction1_Read
     /tmp/cckyA7fG.s:5830   .text.B3M_DynamicFriction1_Write:00000000 $t
ARM GAS  /tmp/cckyA7fG.s 			page 155


     /tmp/cckyA7fG.s:5835   .text.B3M_DynamicFriction1_Write:00000000 B3M_DynamicFriction1_Write
     /tmp/cckyA7fG.s:5895   .text.B3M_KP2_Read:00000000 $t
     /tmp/cckyA7fG.s:5900   .text.B3M_KP2_Read:00000000 B3M_KP2_Read
     /tmp/cckyA7fG.s:5960   .text.B3M_KP2_Write:00000000 $t
     /tmp/cckyA7fG.s:5965   .text.B3M_KP2_Write:00000000 B3M_KP2_Write
     /tmp/cckyA7fG.s:6025   .text.B3M_KD2_Read:00000000 $t
     /tmp/cckyA7fG.s:6030   .text.B3M_KD2_Read:00000000 B3M_KD2_Read
     /tmp/cckyA7fG.s:6090   .text.B3M_KD2_Write:00000000 $t
     /tmp/cckyA7fG.s:6095   .text.B3M_KD2_Write:00000000 B3M_KD2_Write
     /tmp/cckyA7fG.s:6155   .text.B3M_KI2_Read:00000000 $t
     /tmp/cckyA7fG.s:6160   .text.B3M_KI2_Read:00000000 B3M_KI2_Read
     /tmp/cckyA7fG.s:6220   .text.B3M_KI2_Write:00000000 $t
     /tmp/cckyA7fG.s:6225   .text.B3M_KI2_Write:00000000 B3M_KI2_Write
     /tmp/cckyA7fG.s:6285   .text.B3M_StaticFriction2_Read:00000000 $t
     /tmp/cckyA7fG.s:6290   .text.B3M_StaticFriction2_Read:00000000 B3M_StaticFriction2_Read
     /tmp/cckyA7fG.s:6350   .text.B3M_StaticFriction2_Write:00000000 $t
     /tmp/cckyA7fG.s:6355   .text.B3M_StaticFriction2_Write:00000000 B3M_StaticFriction2_Write
     /tmp/cckyA7fG.s:6415   .text.B3M_DynamicFriction2_Read:00000000 $t
     /tmp/cckyA7fG.s:6420   .text.B3M_DynamicFriction2_Read:00000000 B3M_DynamicFriction2_Read
     /tmp/cckyA7fG.s:6480   .text.B3M_DynamicFriction2_Write:00000000 $t
     /tmp/cckyA7fG.s:6485   .text.B3M_DynamicFriction2_Write:00000000 B3M_DynamicFriction2_Write
     /tmp/cckyA7fG.s:6545   .text.B3M_StatusBaseADDR_ReadOnly:00000000 $t
     /tmp/cckyA7fG.s:6550   .text.B3M_StatusBaseADDR_ReadOnly:00000000 B3M_StatusBaseADDR_ReadOnly
     /tmp/cckyA7fG.s:6610   .text.B3M_StatusSystem_ReadOnly:00000000 $t
     /tmp/cckyA7fG.s:6615   .text.B3M_StatusSystem_ReadOnly:00000000 B3M_StatusSystem_ReadOnly
     /tmp/cckyA7fG.s:6675   .text.B3M_StatusSytemError_ReadOnly:00000000 $t
     /tmp/cckyA7fG.s:6680   .text.B3M_StatusSytemError_ReadOnly:00000000 B3M_StatusSytemError_ReadOnly
     /tmp/cckyA7fG.s:6740   .text.B3M_StatusMotor_ReadOnly:00000000 $t
     /tmp/cckyA7fG.s:6745   .text.B3M_StatusMotor_ReadOnly:00000000 B3M_StatusMotor_ReadOnly
     /tmp/cckyA7fG.s:6805   .text.B3M_StatusUart_ReadOnly:00000000 $t
     /tmp/cckyA7fG.s:6810   .text.B3M_StatusUart_ReadOnly:00000000 B3M_StatusUart_ReadOnly
     /tmp/cckyA7fG.s:6870   .text.B3M_StatusCommand_ReadOnly:00000000 $t
     /tmp/cckyA7fG.s:6875   .text.B3M_StatusCommand_ReadOnly:00000000 B3M_StatusCommand_ReadOnly
     /tmp/cckyA7fG.s:6935   .text.B3M_ModelNumber_ReadOnly:00000000 $t
     /tmp/cckyA7fG.s:6940   .text.B3M_ModelNumber_ReadOnly:00000000 B3M_ModelNumber_ReadOnly
     /tmp/cckyA7fG.s:7000   .text.B3M_ModelNumberVoltageClass_ReadOnly:00000000 $t
     /tmp/cckyA7fG.s:7005   .text.B3M_ModelNumberVoltageClass_ReadOnly:00000000 B3M_ModelNumberVoltageClass_ReadOnly
     /tmp/cckyA7fG.s:7065   .text.B3M_ModelNumberVersion_ReadOnly:00000000 $t
     /tmp/cckyA7fG.s:7070   .text.B3M_ModelNumberVersion_ReadOnly:00000000 B3M_ModelNumberVersion_ReadOnly
     /tmp/cckyA7fG.s:7130   .text.B3M_ModelNumberTorque_ReadOnly:00000000 $t
     /tmp/cckyA7fG.s:7135   .text.B3M_ModelNumberTorque_ReadOnly:00000000 B3M_ModelNumberTorque_ReadOnly
     /tmp/cckyA7fG.s:7195   .text.B3M_ModelNumberCase_ReadOnly:00000000 $t
     /tmp/cckyA7fG.s:7200   .text.B3M_ModelNumberCase_ReadOnly:00000000 B3M_ModelNumberCase_ReadOnly
     /tmp/cckyA7fG.s:7260   .text.B3M_ModelType_ReadOnly:00000000 $t
     /tmp/cckyA7fG.s:7265   .text.B3M_ModelType_ReadOnly:00000000 B3M_ModelType_ReadOnly
     /tmp/cckyA7fG.s:7325   .text.B3M_ModelTypeMotor_ReadOnly:00000000 $t
     /tmp/cckyA7fG.s:7330   .text.B3M_ModelTypeMotor_ReadOnly:00000000 B3M_ModelTypeMotor_ReadOnly
     /tmp/cckyA7fG.s:7390   .text.B3M_ModelTypeDevice_ReadOnly:00000000 $t
     /tmp/cckyA7fG.s:7395   .text.B3M_ModelTypeDevice_ReadOnly:00000000 B3M_ModelTypeDevice_ReadOnly
     /tmp/cckyA7fG.s:7455   .text.B3M_FWVersion_ReadOnly:00000000 $t
     /tmp/cckyA7fG.s:7460   .text.B3M_FWVersion_ReadOnly:00000000 B3M_FWVersion_ReadOnly
     /tmp/cckyA7fG.s:7520   .text.B3M_FWRevision_ReadOnly:00000000 $t
     /tmp/cckyA7fG.s:7525   .text.B3M_FWRevision_ReadOnly:00000000 B3M_FWRevision_ReadOnly
     /tmp/cckyA7fG.s:7585   .text.B3M_FWMinor_ReadOnly:00000000 $t
     /tmp/cckyA7fG.s:7590   .text.B3M_FWMinor_ReadOnly:00000000 B3M_FWMinor_ReadOnly
     /tmp/cckyA7fG.s:7650   .text.B3M_FWMajor_ReadOnly:00000000 $t
     /tmp/cckyA7fG.s:7655   .text.B3M_FWMajor_ReadOnly:00000000 B3M_FWMajor_ReadOnly
ARM GAS  /tmp/cckyA7fG.s 			page 156


     /tmp/cckyA7fG.s:7715   .text.B3M_EncOffsetCenter_ReadOnly:00000000 $t
     /tmp/cckyA7fG.s:7720   .text.B3M_EncOffsetCenter_ReadOnly:00000000 B3M_EncOffsetCenter_ReadOnly
     /tmp/cckyA7fG.s:7780   .text.B3M_EncOffset_ReadOnly:00000000 $t
     /tmp/cckyA7fG.s:7785   .text.B3M_EncOffset_ReadOnly:00000000 B3M_EncOffset_ReadOnly
                     .debug_frame:00000010 $d

UNDEFINED SYMBOLS
HAL_UART_Transmit
HAL_Delay
